
riscv.elf:     file format elf32-littleriscv


Disassembly of section .text:

80002000 <_jump>:
80002000:	fb010113          	addi	sp,sp,-80
80002004:	04112623          	sw	ra,76(sp)
80002008:	04812423          	sw	s0,72(sp)
8000200c:	04912223          	sw	s1,68(sp)
80002010:	05212023          	sw	s2,64(sp)
80002014:	03312e23          	sw	s3,60(sp)
80002018:	05010413          	addi	s0,sp,80
8000201c:	fc042e23          	sw	zero,-36(s0)
80002020:	0dc0006f          	j	800020fc <_jump+0xfc>
80002024:	fdc42603          	lw	a2,-36(s0)
80002028:	3e800593          	li	a1,1000
8000202c:	800087b7          	lui	a5,0x80008
80002030:	59478513          	addi	a0,a5,1428 # 80008594 <__stack_top+0xffff8594>
80002034:	00001097          	auipc	ra,0x1
80002038:	254080e7          	jalr	596(ra) # 80003288 <init_array>
8000203c:	fc042c23          	sw	zero,-40(s0)
80002040:	0400006f          	j	80002080 <_jump+0x80>
80002044:	800087b7          	lui	a5,0x80008
80002048:	fd842703          	lw	a4,-40(s0)
8000204c:	00271713          	slli	a4,a4,0x2
80002050:	59478793          	addi	a5,a5,1428 # 80008594 <__stack_top+0xffff8594>
80002054:	00f707b3          	add	a5,a4,a5
80002058:	0007a703          	lw	a4,0(a5)
8000205c:	8000c7b7          	lui	a5,0x8000c
80002060:	fd842683          	lw	a3,-40(s0)
80002064:	00269693          	slli	a3,a3,0x2
80002068:	95478793          	addi	a5,a5,-1708 # 8000b954 <__stack_top+0xffffb954>
8000206c:	00f687b3          	add	a5,a3,a5
80002070:	00e7a023          	sw	a4,0(a5)
80002074:	fd842783          	lw	a5,-40(s0)
80002078:	00178793          	addi	a5,a5,1
8000207c:	fcf42c23          	sw	a5,-40(s0)
80002080:	fd842703          	lw	a4,-40(s0)
80002084:	3e700793          	li	a5,999
80002088:	fae7dee3          	bge	a5,a4,80002044 <_jump+0x44>
8000208c:	3e800593          	li	a1,1000
80002090:	800087b7          	lui	a5,0x80008
80002094:	59478513          	addi	a0,a5,1428 # 80008594 <__stack_top+0xffff8594>
80002098:	00001097          	auipc	ra,0x1
8000209c:	f78080e7          	jalr	-136(ra) # 80003010 <sort_insertion>
800020a0:	3e800593          	li	a1,1000
800020a4:	8000c7b7          	lui	a5,0x8000c
800020a8:	95478513          	addi	a0,a5,-1708 # 8000b954 <__stack_top+0xffffb954>
800020ac:	00001097          	auipc	ra,0x1
800020b0:	04c080e7          	jalr	76(ra) # 800030f8 <sort_selection>
800020b4:	3e800613          	li	a2,1000
800020b8:	8000c7b7          	lui	a5,0x8000c
800020bc:	95478593          	addi	a1,a5,-1708 # 8000b954 <__stack_top+0xffffb954>
800020c0:	800087b7          	lui	a5,0x80008
800020c4:	59478513          	addi	a0,a5,1428 # 80008594 <__stack_top+0xffff8594>
800020c8:	00001097          	auipc	ra,0x1
800020cc:	140080e7          	jalr	320(ra) # 80003208 <array_equal>
800020d0:	00050793          	mv	a5,a0
800020d4:	00079e63          	bnez	a5,800020f0 <_jump+0xf0>
800020d8:	800017b7          	lui	a5,0x80001
800020dc:	0087a703          	lw	a4,8(a5) # 80001008 <__stack_top+0xffff1008>
800020e0:	800037b7          	lui	a5,0x80003
800020e4:	7c478513          	addi	a0,a5,1988 # 800037c4 <__stack_top+0xffff37c4>
800020e8:	000700e7          	jalr	a4
800020ec:	2d40006f          	j	800023c0 <_jump+0x3c0>
800020f0:	fdc42783          	lw	a5,-36(s0)
800020f4:	00178793          	addi	a5,a5,1
800020f8:	fcf42e23          	sw	a5,-36(s0)
800020fc:	fdc42703          	lw	a4,-36(s0)
80002100:	00400793          	li	a5,4
80002104:	f2e7d0e3          	bge	a5,a4,80002024 <_jump+0x24>
80002108:	00001097          	auipc	ra,0x1
8000210c:	d9c080e7          	jalr	-612(ra) # 80002ea4 <validate_prime_calculation>
80002110:	00050793          	mv	a5,a0
80002114:	00079e63          	bnez	a5,80002130 <_jump+0x130>
80002118:	800017b7          	lui	a5,0x80001
8000211c:	0087a703          	lw	a4,8(a5) # 80001008 <__stack_top+0xffff1008>
80002120:	800037b7          	lui	a5,0x80003
80002124:	7dc78513          	addi	a0,a5,2012 # 800037dc <__stack_top+0xffff37dc>
80002128:	000700e7          	jalr	a4
8000212c:	2940006f          	j	800023c0 <_jump+0x3c0>
80002130:	00000097          	auipc	ra,0x0
80002134:	418080e7          	jalr	1048(ra) # 80002548 <run_crc_test>
80002138:	00050793          	mv	a5,a0
8000213c:	00079e63          	bnez	a5,80002158 <_jump+0x158>
80002140:	800017b7          	lui	a5,0x80001
80002144:	0087a703          	lw	a4,8(a5) # 80001008 <__stack_top+0xffff1008>
80002148:	800037b7          	lui	a5,0x80003
8000214c:	7f478513          	addi	a0,a5,2036 # 800037f4 <__stack_top+0xffff37f4>
80002150:	000700e7          	jalr	a4
80002154:	26c0006f          	j	800023c0 <_jump+0x3c0>
80002158:	fc042a23          	sw	zero,-44(s0)
8000215c:	0b80006f          	j	80002214 <_jump+0x214>
80002160:	fd442583          	lw	a1,-44(s0)
80002164:	800077b7          	lui	a5,0x80007
80002168:	78478513          	addi	a0,a5,1924 # 80007784 <__stack_top+0xffff7784>
8000216c:	00001097          	auipc	ra,0x1
80002170:	c0c080e7          	jalr	-1012(ra) # 80002d78 <init_matrix>
80002174:	fd442783          	lw	a5,-44(s0)
80002178:	00179793          	slli	a5,a5,0x1
8000217c:	00078593          	mv	a1,a5
80002180:	800097b7          	lui	a5,0x80009
80002184:	53478513          	addi	a0,a5,1332 # 80009534 <__stack_top+0xffff9534>
80002188:	00001097          	auipc	ra,0x1
8000218c:	bf0080e7          	jalr	-1040(ra) # 80002d78 <init_matrix>
80002190:	800047b7          	lui	a5,0x80004
80002194:	98078613          	addi	a2,a5,-1664 # 80003980 <__stack_top+0xffff3980>
80002198:	800097b7          	lui	a5,0x80009
8000219c:	53478593          	addi	a1,a5,1332 # 80009534 <__stack_top+0xffff9534>
800021a0:	800077b7          	lui	a5,0x80007
800021a4:	78478513          	addi	a0,a5,1924 # 80007784 <__stack_top+0xffff7784>
800021a8:	00000097          	auipc	ra,0x0
800021ac:	7a4080e7          	jalr	1956(ra) # 8000294c <matmul_naive>
800021b0:	8000a7b7          	lui	a5,0x8000a
800021b4:	34478613          	addi	a2,a5,836 # 8000a344 <__stack_top+0xffffa344>
800021b8:	800097b7          	lui	a5,0x80009
800021bc:	53478593          	addi	a1,a5,1332 # 80009534 <__stack_top+0xffff9534>
800021c0:	800077b7          	lui	a5,0x80007
800021c4:	78478513          	addi	a0,a5,1924 # 80007784 <__stack_top+0xffff7784>
800021c8:	00001097          	auipc	ra,0x1
800021cc:	8b4080e7          	jalr	-1868(ra) # 80002a7c <matmul_transpose>
800021d0:	8000a7b7          	lui	a5,0x8000a
800021d4:	34478593          	addi	a1,a5,836 # 8000a344 <__stack_top+0xffffa344>
800021d8:	800047b7          	lui	a5,0x80004
800021dc:	98078513          	addi	a0,a5,-1664 # 80003980 <__stack_top+0xffff3980>
800021e0:	00001097          	auipc	ra,0x1
800021e4:	ac4080e7          	jalr	-1340(ra) # 80002ca4 <verify>
800021e8:	00050793          	mv	a5,a0
800021ec:	00079e63          	bnez	a5,80002208 <_jump+0x208>
800021f0:	800017b7          	lui	a5,0x80001
800021f4:	0087a703          	lw	a4,8(a5) # 80001008 <__stack_top+0xffff1008>
800021f8:	800047b7          	lui	a5,0x80004
800021fc:	80c78513          	addi	a0,a5,-2036 # 8000380c <__stack_top+0xffff380c>
80002200:	000700e7          	jalr	a4
80002204:	1bc0006f          	j	800023c0 <_jump+0x3c0>
80002208:	fd442783          	lw	a5,-44(s0)
8000220c:	00178793          	addi	a5,a5,1
80002210:	fcf42a23          	sw	a5,-44(s0)
80002214:	fd442703          	lw	a4,-44(s0)
80002218:	00400793          	li	a5,4
8000221c:	f4e7d2e3          	bge	a5,a4,80002160 <_jump+0x160>
80002220:	00000097          	auipc	ra,0x0
80002224:	578080e7          	jalr	1400(ra) # 80002798 <run_fsm_test>
80002228:	00050793          	mv	a5,a0
8000222c:	00079e63          	bnez	a5,80002248 <_jump+0x248>
80002230:	800017b7          	lui	a5,0x80001
80002234:	0087a703          	lw	a4,8(a5) # 80001008 <__stack_top+0xffff1008>
80002238:	800047b7          	lui	a5,0x80004
8000223c:	82478513          	addi	a0,a5,-2012 # 80003824 <__stack_top+0xffff3824>
80002240:	000700e7          	jalr	a4
80002244:	17c0006f          	j	800023c0 <_jump+0x3c0>
80002248:	800017b7          	lui	a5,0x80001
8000224c:	0087a703          	lw	a4,8(a5) # 80001008 <__stack_top+0xffff1008>
80002250:	800047b7          	lui	a5,0x80004
80002254:	83c78513          	addi	a0,a5,-1988 # 8000383c <__stack_top+0xffff383c>
80002258:	000700e7          	jalr	a4
8000225c:	800017b7          	lui	a5,0x80001
80002260:	0007a783          	lw	a5,0(a5) # 80001000 <__stack_top+0xffff1000>
80002264:	000780e7          	jalr	a5
80002268:	fca42423          	sw	a0,-56(s0)
8000226c:	fcb42623          	sw	a1,-52(s0)
80002270:	800017b7          	lui	a5,0x80001
80002274:	0087a703          	lw	a4,8(a5) # 80001008 <__stack_top+0xffff1008>
80002278:	fc842603          	lw	a2,-56(s0)
8000227c:	fcc42683          	lw	a3,-52(s0)
80002280:	800047b7          	lui	a5,0x80004
80002284:	85478513          	addi	a0,a5,-1964 # 80003854 <__stack_top+0xffff3854>
80002288:	000700e7          	jalr	a4
8000228c:	fc042823          	sw	zero,-48(s0)
80002290:	0280006f          	j	800022b8 <_jump+0x2b8>
80002294:	800017b7          	lui	a5,0x80001
80002298:	0087a703          	lw	a4,8(a5) # 80001008 <__stack_top+0xffff1008>
8000229c:	fd042583          	lw	a1,-48(s0)
800022a0:	800047b7          	lui	a5,0x80004
800022a4:	86078513          	addi	a0,a5,-1952 # 80003860 <__stack_top+0xffff3860>
800022a8:	000700e7          	jalr	a4
800022ac:	fd042783          	lw	a5,-48(s0)
800022b0:	00178793          	addi	a5,a5,1
800022b4:	fcf42823          	sw	a5,-48(s0)
800022b8:	fd042703          	lw	a4,-48(s0)
800022bc:	00900793          	li	a5,9
800022c0:	fce7dae3          	bge	a5,a4,80002294 <_jump+0x294>
800022c4:	800017b7          	lui	a5,0x80001
800022c8:	0007a783          	lw	a5,0(a5) # 80001000 <__stack_top+0xffff1000>
800022cc:	000780e7          	jalr	a5
800022d0:	fca42023          	sw	a0,-64(s0)
800022d4:	fcb42223          	sw	a1,-60(s0)
800022d8:	800017b7          	lui	a5,0x80001
800022dc:	0047a783          	lw	a5,4(a5) # 80001004 <__stack_top+0xffff1004>
800022e0:	000780e7          	jalr	a5
800022e4:	faa42e23          	sw	a0,-68(s0)
800022e8:	800017b7          	lui	a5,0x80001
800022ec:	0087a703          	lw	a4,8(a5) # 80001008 <__stack_top+0xffff1008>
800022f0:	fc042603          	lw	a2,-64(s0)
800022f4:	fc442683          	lw	a3,-60(s0)
800022f8:	800047b7          	lui	a5,0x80004
800022fc:	85478513          	addi	a0,a5,-1964 # 80003854 <__stack_top+0xffff3854>
80002300:	000700e7          	jalr	a4
80002304:	800017b7          	lui	a5,0x80001
80002308:	0087a883          	lw	a7,8(a5) # 80001008 <__stack_top+0xffff1008>
8000230c:	fc042783          	lw	a5,-64(s0)
80002310:	fc442803          	lw	a6,-60(s0)
80002314:	fc842583          	lw	a1,-56(s0)
80002318:	fcc42603          	lw	a2,-52(s0)
8000231c:	40b786b3          	sub	a3,a5,a1
80002320:	00068513          	mv	a0,a3
80002324:	00a7b533          	sltu	a0,a5,a0
80002328:	40c80733          	sub	a4,a6,a2
8000232c:	40a707b3          	sub	a5,a4,a0
80002330:	00078713          	mv	a4,a5
80002334:	00068793          	mv	a5,a3
80002338:	00070813          	mv	a6,a4
8000233c:	00078613          	mv	a2,a5
80002340:	00080693          	mv	a3,a6
80002344:	800047b7          	lui	a5,0x80004
80002348:	85478513          	addi	a0,a5,-1964 # 80003854 <__stack_top+0xffff3854>
8000234c:	000880e7          	jalr	a7
80002350:	800017b7          	lui	a5,0x80001
80002354:	0087a483          	lw	s1,8(a5) # 80001008 <__stack_top+0xffff1008>
80002358:	fc042783          	lw	a5,-64(s0)
8000235c:	fc442803          	lw	a6,-60(s0)
80002360:	fc842583          	lw	a1,-56(s0)
80002364:	fcc42603          	lw	a2,-52(s0)
80002368:	40b786b3          	sub	a3,a5,a1
8000236c:	00068513          	mv	a0,a3
80002370:	00a7b533          	sltu	a0,a5,a0
80002374:	40c80733          	sub	a4,a6,a2
80002378:	40a707b3          	sub	a5,a4,a0
8000237c:	00078713          	mv	a4,a5
80002380:	00068513          	mv	a0,a3
80002384:	00070593          	mv	a1,a4
80002388:	fbc42783          	lw	a5,-68(s0)
8000238c:	00078913          	mv	s2,a5
80002390:	00000993          	li	s3,0
80002394:	00090613          	mv	a2,s2
80002398:	00098693          	mv	a3,s3
8000239c:	00001097          	auipc	ra,0x1
800023a0:	f88080e7          	jalr	-120(ra) # 80003324 <__udivdi3>
800023a4:	00050793          	mv	a5,a0
800023a8:	00058813          	mv	a6,a1
800023ac:	00078613          	mv	a2,a5
800023b0:	00080693          	mv	a3,a6
800023b4:	800047b7          	lui	a5,0x80004
800023b8:	87078513          	addi	a0,a5,-1936 # 80003870 <__stack_top+0xffff3870>
800023bc:	000480e7          	jalr	s1
800023c0:	04c12083          	lw	ra,76(sp)
800023c4:	04812403          	lw	s0,72(sp)
800023c8:	04412483          	lw	s1,68(sp)
800023cc:	04012903          	lw	s2,64(sp)
800023d0:	03c12983          	lw	s3,60(sp)
800023d4:	05010113          	addi	sp,sp,80
800023d8:	00008067          	ret

800023dc <crc16_modbus>:
800023dc:	fd010113          	addi	sp,sp,-48
800023e0:	02812623          	sw	s0,44(sp)
800023e4:	03010413          	addi	s0,sp,48
800023e8:	fca42e23          	sw	a0,-36(s0)
800023ec:	fcb42c23          	sw	a1,-40(s0)
800023f0:	fff00793          	li	a5,-1
800023f4:	fef41723          	sh	a5,-18(s0)
800023f8:	fe042423          	sw	zero,-24(s0)
800023fc:	0900006f          	j	8000248c <crc16_modbus+0xb0>
80002400:	fe842783          	lw	a5,-24(s0)
80002404:	fdc42703          	lw	a4,-36(s0)
80002408:	00f707b3          	add	a5,a4,a5
8000240c:	0007c783          	lbu	a5,0(a5)
80002410:	01079713          	slli	a4,a5,0x10
80002414:	01075713          	srli	a4,a4,0x10
80002418:	fee45783          	lhu	a5,-18(s0)
8000241c:	00f747b3          	xor	a5,a4,a5
80002420:	fef41723          	sh	a5,-18(s0)
80002424:	fe042223          	sw	zero,-28(s0)
80002428:	04c0006f          	j	80002474 <crc16_modbus+0x98>
8000242c:	fee45783          	lhu	a5,-18(s0)
80002430:	0017f793          	andi	a5,a5,1
80002434:	02078463          	beqz	a5,8000245c <crc16_modbus+0x80>
80002438:	fee45783          	lhu	a5,-18(s0)
8000243c:	0017d793          	srli	a5,a5,0x1
80002440:	01079713          	slli	a4,a5,0x10
80002444:	01075713          	srli	a4,a4,0x10
80002448:	ffffa7b7          	lui	a5,0xffffa
8000244c:	00178793          	addi	a5,a5,1 # ffffa001 <__stack_top+0x7ffea001>
80002450:	00f747b3          	xor	a5,a4,a5
80002454:	fef41723          	sh	a5,-18(s0)
80002458:	0100006f          	j	80002468 <crc16_modbus+0x8c>
8000245c:	fee45783          	lhu	a5,-18(s0)
80002460:	0017d793          	srli	a5,a5,0x1
80002464:	fef41723          	sh	a5,-18(s0)
80002468:	fe442783          	lw	a5,-28(s0)
8000246c:	00178793          	addi	a5,a5,1
80002470:	fef42223          	sw	a5,-28(s0)
80002474:	fe442703          	lw	a4,-28(s0)
80002478:	00700793          	li	a5,7
8000247c:	fae7d8e3          	bge	a5,a4,8000242c <crc16_modbus+0x50>
80002480:	fe842783          	lw	a5,-24(s0)
80002484:	00178793          	addi	a5,a5,1
80002488:	fef42423          	sw	a5,-24(s0)
8000248c:	fe842703          	lw	a4,-24(s0)
80002490:	fd842783          	lw	a5,-40(s0)
80002494:	f6f746e3          	blt	a4,a5,80002400 <crc16_modbus+0x24>
80002498:	fee45783          	lhu	a5,-18(s0)
8000249c:	00078513          	mv	a0,a5
800024a0:	02c12403          	lw	s0,44(sp)
800024a4:	03010113          	addi	sp,sp,48
800024a8:	00008067          	ret

800024ac <init_crc_buffer>:
800024ac:	fd010113          	addi	sp,sp,-48
800024b0:	02812623          	sw	s0,44(sp)
800024b4:	03010413          	addi	s0,sp,48
800024b8:	fca42e23          	sw	a0,-36(s0)
800024bc:	fe042623          	sw	zero,-20(s0)
800024c0:	06c0006f          	j	8000252c <init_crc_buffer+0x80>
800024c4:	fec42703          	lw	a4,-20(s0)
800024c8:	00070793          	mv	a5,a4
800024cc:	00479793          	slli	a5,a5,0x4
800024d0:	00e786b3          	add	a3,a5,a4
800024d4:	fdc42703          	lw	a4,-36(s0)
800024d8:	00070793          	mv	a5,a4
800024dc:	00179793          	slli	a5,a5,0x1
800024e0:	00e787b3          	add	a5,a5,a4
800024e4:	00379793          	slli	a5,a5,0x3
800024e8:	40e787b3          	sub	a5,a5,a4
800024ec:	00f687b3          	add	a5,a3,a5
800024f0:	01d78713          	addi	a4,a5,29
800024f4:	41f75793          	srai	a5,a4,0x1f
800024f8:	0187d793          	srli	a5,a5,0x18
800024fc:	00f70733          	add	a4,a4,a5
80002500:	0ff77713          	andi	a4,a4,255
80002504:	40f707b3          	sub	a5,a4,a5
80002508:	0ff7f713          	andi	a4,a5,255
8000250c:	8000b7b7          	lui	a5,0x8000b
80002510:	15478693          	addi	a3,a5,340 # 8000b154 <__stack_top+0xffffb154>
80002514:	fec42783          	lw	a5,-20(s0)
80002518:	00f687b3          	add	a5,a3,a5
8000251c:	00e78023          	sb	a4,0(a5)
80002520:	fec42783          	lw	a5,-20(s0)
80002524:	00178793          	addi	a5,a5,1
80002528:	fef42623          	sw	a5,-20(s0)
8000252c:	fec42703          	lw	a4,-20(s0)
80002530:	7ff00793          	li	a5,2047
80002534:	f8e7d8e3          	bge	a5,a4,800024c4 <init_crc_buffer+0x18>
80002538:	00000013          	nop
8000253c:	02c12403          	lw	s0,44(sp)
80002540:	03010113          	addi	sp,sp,48
80002544:	00008067          	ret

80002548 <run_crc_test>:
80002548:	fe010113          	addi	sp,sp,-32
8000254c:	00112e23          	sw	ra,28(sp)
80002550:	00812c23          	sw	s0,24(sp)
80002554:	02010413          	addi	s0,sp,32
80002558:	fe042623          	sw	zero,-20(s0)
8000255c:	14c0006f          	j	800026a8 <run_crc_test+0x160>
80002560:	fec42503          	lw	a0,-20(s0)
80002564:	00000097          	auipc	ra,0x0
80002568:	f48080e7          	jalr	-184(ra) # 800024ac <init_crc_buffer>
8000256c:	000017b7          	lui	a5,0x1
80002570:	80078593          	addi	a1,a5,-2048 # 800 <_jump-0x80001800>
80002574:	8000b7b7          	lui	a5,0x8000b
80002578:	15478513          	addi	a0,a5,340 # 8000b154 <__stack_top+0xffffb154>
8000257c:	00000097          	auipc	ra,0x0
80002580:	e60080e7          	jalr	-416(ra) # 800023dc <crc16_modbus>
80002584:	00050793          	mv	a5,a0
80002588:	fef41523          	sh	a5,-22(s0)
8000258c:	fec42703          	lw	a4,-20(s0)
80002590:	00070793          	mv	a5,a4
80002594:	00579793          	slli	a5,a5,0x5
80002598:	40e787b3          	sub	a5,a5,a4
8000259c:	00279793          	slli	a5,a5,0x2
800025a0:	40e78733          	sub	a4,a5,a4
800025a4:	41f75793          	srai	a5,a4,0x1f
800025a8:	0157d793          	srli	a5,a5,0x15
800025ac:	00f70733          	add	a4,a4,a5
800025b0:	7ff77713          	andi	a4,a4,2047
800025b4:	40f707b3          	sub	a5,a4,a5
800025b8:	8000b737          	lui	a4,0x8000b
800025bc:	15470713          	addi	a4,a4,340 # 8000b154 <__stack_top+0xffffb154>
800025c0:	00e78733          	add	a4,a5,a4
800025c4:	00074703          	lbu	a4,0(a4)
800025c8:	05a74713          	xori	a4,a4,90
800025cc:	0ff77713          	andi	a4,a4,255
800025d0:	8000b6b7          	lui	a3,0x8000b
800025d4:	15468693          	addi	a3,a3,340 # 8000b154 <__stack_top+0xffffb154>
800025d8:	00d787b3          	add	a5,a5,a3
800025dc:	00e78023          	sb	a4,0(a5)
800025e0:	000017b7          	lui	a5,0x1
800025e4:	80078593          	addi	a1,a5,-2048 # 800 <_jump-0x80001800>
800025e8:	8000b7b7          	lui	a5,0x8000b
800025ec:	15478513          	addi	a0,a5,340 # 8000b154 <__stack_top+0xffffb154>
800025f0:	00000097          	auipc	ra,0x0
800025f4:	dec080e7          	jalr	-532(ra) # 800023dc <crc16_modbus>
800025f8:	00050793          	mv	a5,a0
800025fc:	fef41423          	sh	a5,-24(s0)
80002600:	fec42703          	lw	a4,-20(s0)
80002604:	00070793          	mv	a5,a4
80002608:	00579793          	slli	a5,a5,0x5
8000260c:	40e787b3          	sub	a5,a5,a4
80002610:	00279793          	slli	a5,a5,0x2
80002614:	40e78733          	sub	a4,a5,a4
80002618:	41f75793          	srai	a5,a4,0x1f
8000261c:	0157d793          	srli	a5,a5,0x15
80002620:	00f70733          	add	a4,a4,a5
80002624:	7ff77713          	andi	a4,a4,2047
80002628:	40f707b3          	sub	a5,a4,a5
8000262c:	8000b737          	lui	a4,0x8000b
80002630:	15470713          	addi	a4,a4,340 # 8000b154 <__stack_top+0xffffb154>
80002634:	00e78733          	add	a4,a5,a4
80002638:	00074703          	lbu	a4,0(a4)
8000263c:	05a74713          	xori	a4,a4,90
80002640:	0ff77713          	andi	a4,a4,255
80002644:	8000b6b7          	lui	a3,0x8000b
80002648:	15468693          	addi	a3,a3,340 # 8000b154 <__stack_top+0xffffb154>
8000264c:	00d787b3          	add	a5,a5,a3
80002650:	00e78023          	sb	a4,0(a5)
80002654:	000017b7          	lui	a5,0x1
80002658:	80078593          	addi	a1,a5,-2048 # 800 <_jump-0x80001800>
8000265c:	8000b7b7          	lui	a5,0x8000b
80002660:	15478513          	addi	a0,a5,340 # 8000b154 <__stack_top+0xffffb154>
80002664:	00000097          	auipc	ra,0x0
80002668:	d78080e7          	jalr	-648(ra) # 800023dc <crc16_modbus>
8000266c:	00050793          	mv	a5,a0
80002670:	fef41323          	sh	a5,-26(s0)
80002674:	fea45703          	lhu	a4,-22(s0)
80002678:	fe845783          	lhu	a5,-24(s0)
8000267c:	00f71663          	bne	a4,a5,80002688 <run_crc_test+0x140>
80002680:	00000793          	li	a5,0
80002684:	0340006f          	j	800026b8 <run_crc_test+0x170>
80002688:	fe645703          	lhu	a4,-26(s0)
8000268c:	fea45783          	lhu	a5,-22(s0)
80002690:	00f70663          	beq	a4,a5,8000269c <run_crc_test+0x154>
80002694:	00000793          	li	a5,0
80002698:	0200006f          	j	800026b8 <run_crc_test+0x170>
8000269c:	fec42783          	lw	a5,-20(s0)
800026a0:	00178793          	addi	a5,a5,1
800026a4:	fef42623          	sw	a5,-20(s0)
800026a8:	fec42703          	lw	a4,-20(s0)
800026ac:	12b00793          	li	a5,299
800026b0:	eae7d8e3          	bge	a5,a4,80002560 <run_crc_test+0x18>
800026b4:	00100793          	li	a5,1
800026b8:	00078513          	mv	a0,a5
800026bc:	01c12083          	lw	ra,28(sp)
800026c0:	01812403          	lw	s0,24(sp)
800026c4:	02010113          	addi	sp,sp,32
800026c8:	00008067          	ret

800026cc <fsm_transition>:
800026cc:	fe010113          	addi	sp,sp,-32
800026d0:	00812e23          	sw	s0,28(sp)
800026d4:	02010413          	addi	s0,sp,32
800026d8:	fea42623          	sw	a0,-20(s0)
800026dc:	feb42423          	sw	a1,-24(s0)
800026e0:	fec42703          	lw	a4,-20(s0)
800026e4:	00100793          	li	a5,1
800026e8:	04f70263          	beq	a4,a5,8000272c <fsm_transition+0x60>
800026ec:	fec42783          	lw	a5,-20(s0)
800026f0:	02078063          	beqz	a5,80002710 <fsm_transition+0x44>
800026f4:	fec42703          	lw	a4,-20(s0)
800026f8:	00200793          	li	a5,2
800026fc:	04f70863          	beq	a4,a5,8000274c <fsm_transition+0x80>
80002700:	fec42703          	lw	a4,-20(s0)
80002704:	00300793          	li	a5,3
80002708:	06f70263          	beq	a4,a5,8000276c <fsm_transition+0xa0>
8000270c:	0780006f          	j	80002784 <fsm_transition+0xb8>
80002710:	fe842783          	lw	a5,-24(s0)
80002714:	0017f793          	andi	a5,a5,1
80002718:	00079663          	bnez	a5,80002724 <fsm_transition+0x58>
8000271c:	00100793          	li	a5,1
80002720:	0680006f          	j	80002788 <fsm_transition+0xbc>
80002724:	00200793          	li	a5,2
80002728:	0600006f          	j	80002788 <fsm_transition+0xbc>
8000272c:	fe842703          	lw	a4,-24(s0)
80002730:	00300793          	li	a5,3
80002734:	02f767b3          	rem	a5,a4,a5
80002738:	00079663          	bnez	a5,80002744 <fsm_transition+0x78>
8000273c:	00200793          	li	a5,2
80002740:	0480006f          	j	80002788 <fsm_transition+0xbc>
80002744:	00300793          	li	a5,3
80002748:	0400006f          	j	80002788 <fsm_transition+0xbc>
8000274c:	fe842703          	lw	a4,-24(s0)
80002750:	00500793          	li	a5,5
80002754:	02f767b3          	rem	a5,a4,a5
80002758:	00079663          	bnez	a5,80002764 <fsm_transition+0x98>
8000275c:	00300793          	li	a5,3
80002760:	0280006f          	j	80002788 <fsm_transition+0xbc>
80002764:	00000793          	li	a5,0
80002768:	0200006f          	j	80002788 <fsm_transition+0xbc>
8000276c:	fe842703          	lw	a4,-24(s0)
80002770:	00700793          	li	a5,7
80002774:	02f767b3          	rem	a5,a4,a5
80002778:	00f037b3          	snez	a5,a5
8000277c:	0ff7f793          	andi	a5,a5,255
80002780:	0080006f          	j	80002788 <fsm_transition+0xbc>
80002784:	00000793          	li	a5,0
80002788:	00078513          	mv	a0,a5
8000278c:	01c12403          	lw	s0,28(sp)
80002790:	02010113          	addi	sp,sp,32
80002794:	00008067          	ret

80002798 <run_fsm_test>:
80002798:	fc010113          	addi	sp,sp,-64
8000279c:	02112e23          	sw	ra,60(sp)
800027a0:	02812c23          	sw	s0,56(sp)
800027a4:	04010413          	addi	s0,sp,64
800027a8:	fe042623          	sw	zero,-20(s0)
800027ac:	fe042423          	sw	zero,-24(s0)
800027b0:	fe042223          	sw	zero,-28(s0)
800027b4:	0980006f          	j	8000284c <run_fsm_test+0xb4>
800027b8:	fe042023          	sw	zero,-32(s0)
800027bc:	0780006f          	j	80002834 <run_fsm_test+0x9c>
800027c0:	fec42783          	lw	a5,-20(s0)
800027c4:	0ff7f713          	andi	a4,a5,255
800027c8:	800047b7          	lui	a5,0x80004
800027cc:	79078693          	addi	a3,a5,1936 # 80004790 <__stack_top+0xffff4790>
800027d0:	fe042783          	lw	a5,-32(s0)
800027d4:	00f687b3          	add	a5,a3,a5
800027d8:	00e78023          	sb	a4,0(a5)
800027dc:	fe042703          	lw	a4,-32(s0)
800027e0:	00070793          	mv	a5,a4
800027e4:	00479793          	slli	a5,a5,0x4
800027e8:	00e787b3          	add	a5,a5,a4
800027ec:	01778793          	addi	a5,a5,23
800027f0:	00078593          	mv	a1,a5
800027f4:	fec42503          	lw	a0,-20(s0)
800027f8:	00000097          	auipc	ra,0x0
800027fc:	ed4080e7          	jalr	-300(ra) # 800026cc <fsm_transition>
80002800:	00050793          	mv	a5,a0
80002804:	fef42623          	sw	a5,-20(s0)
80002808:	fe042783          	lw	a5,-32(s0)
8000280c:	00178793          	addi	a5,a5,1
80002810:	00078713          	mv	a4,a5
80002814:	fec42783          	lw	a5,-20(s0)
80002818:	02f70733          	mul	a4,a4,a5
8000281c:	fe842783          	lw	a5,-24(s0)
80002820:	00f707b3          	add	a5,a4,a5
80002824:	fef42423          	sw	a5,-24(s0)
80002828:	fe042783          	lw	a5,-32(s0)
8000282c:	00178793          	addi	a5,a5,1
80002830:	fef42023          	sw	a5,-32(s0)
80002834:	fe042703          	lw	a4,-32(s0)
80002838:	0ff00793          	li	a5,255
8000283c:	f8e7d2e3          	bge	a5,a4,800027c0 <run_fsm_test+0x28>
80002840:	fe442783          	lw	a5,-28(s0)
80002844:	00178793          	addi	a5,a5,1
80002848:	fef42223          	sw	a5,-28(s0)
8000284c:	fe442703          	lw	a4,-28(s0)
80002850:	000017b7          	lui	a5,0x1
80002854:	38778793          	addi	a5,a5,903 # 1387 <_jump-0x80000c79>
80002858:	f6e7d0e3          	bge	a5,a4,800027b8 <run_fsm_test+0x20>
8000285c:	0f7d47b7          	lui	a5,0xf7d4
80002860:	9a978793          	addi	a5,a5,-1623 # f7d39a9 <_jump-0x7082e657>
80002864:	fcf42623          	sw	a5,-52(s0)
80002868:	fe842703          	lw	a4,-24(s0)
8000286c:	fcc42783          	lw	a5,-52(s0)
80002870:	00f70663          	beq	a4,a5,8000287c <run_fsm_test+0xe4>
80002874:	00000793          	li	a5,0
80002878:	0c00006f          	j	80002938 <run_fsm_test+0x1a0>
8000287c:	00100793          	li	a5,1
80002880:	fcf42e23          	sw	a5,-36(s0)
80002884:	fc042c23          	sw	zero,-40(s0)
80002888:	fc042a23          	sw	zero,-44(s0)
8000288c:	0840006f          	j	80002910 <run_fsm_test+0x178>
80002890:	fc042823          	sw	zero,-48(s0)
80002894:	0640006f          	j	800028f8 <run_fsm_test+0x160>
80002898:	fd042703          	lw	a4,-48(s0)
8000289c:	00070793          	mv	a5,a4
800028a0:	00279793          	slli	a5,a5,0x2
800028a4:	00e787b3          	add	a5,a5,a4
800028a8:	00279793          	slli	a5,a5,0x2
800028ac:	40e787b3          	sub	a5,a5,a4
800028b0:	01f78793          	addi	a5,a5,31
800028b4:	00078593          	mv	a1,a5
800028b8:	fdc42503          	lw	a0,-36(s0)
800028bc:	00000097          	auipc	ra,0x0
800028c0:	e10080e7          	jalr	-496(ra) # 800026cc <fsm_transition>
800028c4:	00050793          	mv	a5,a0
800028c8:	fcf42e23          	sw	a5,-36(s0)
800028cc:	fd042783          	lw	a5,-48(s0)
800028d0:	00178793          	addi	a5,a5,1
800028d4:	00078713          	mv	a4,a5
800028d8:	fdc42783          	lw	a5,-36(s0)
800028dc:	02f70733          	mul	a4,a4,a5
800028e0:	fd842783          	lw	a5,-40(s0)
800028e4:	00f707b3          	add	a5,a4,a5
800028e8:	fcf42c23          	sw	a5,-40(s0)
800028ec:	fd042783          	lw	a5,-48(s0)
800028f0:	00178793          	addi	a5,a5,1
800028f4:	fcf42823          	sw	a5,-48(s0)
800028f8:	fd042703          	lw	a4,-48(s0)
800028fc:	0ff00793          	li	a5,255
80002900:	f8e7dce3          	bge	a5,a4,80002898 <run_fsm_test+0x100>
80002904:	fd442783          	lw	a5,-44(s0)
80002908:	00178793          	addi	a5,a5,1
8000290c:	fcf42a23          	sw	a5,-44(s0)
80002910:	fd442703          	lw	a4,-44(s0)
80002914:	000017b7          	lui	a5,0x1
80002918:	38778793          	addi	a5,a5,903 # 1387 <_jump-0x80000c79>
8000291c:	f6e7dae3          	bge	a5,a4,80002890 <run_fsm_test+0xf8>
80002920:	fd842703          	lw	a4,-40(s0)
80002924:	fcc42783          	lw	a5,-52(s0)
80002928:	00f71663          	bne	a4,a5,80002934 <run_fsm_test+0x19c>
8000292c:	00000793          	li	a5,0
80002930:	0080006f          	j	80002938 <run_fsm_test+0x1a0>
80002934:	00100793          	li	a5,1
80002938:	00078513          	mv	a0,a5
8000293c:	03c12083          	lw	ra,60(sp)
80002940:	03812403          	lw	s0,56(sp)
80002944:	04010113          	addi	sp,sp,64
80002948:	00008067          	ret

8000294c <matmul_naive>:
8000294c:	fd010113          	addi	sp,sp,-48
80002950:	02812623          	sw	s0,44(sp)
80002954:	03010413          	addi	s0,sp,48
80002958:	fca42e23          	sw	a0,-36(s0)
8000295c:	fcb42c23          	sw	a1,-40(s0)
80002960:	fcc42a23          	sw	a2,-44(s0)
80002964:	fe042623          	sw	zero,-20(s0)
80002968:	0f80006f          	j	80002a60 <matmul_naive+0x114>
8000296c:	fe042423          	sw	zero,-24(s0)
80002970:	0d80006f          	j	80002a48 <matmul_naive+0xfc>
80002974:	fe042023          	sw	zero,-32(s0)
80002978:	fe042223          	sw	zero,-28(s0)
8000297c:	0800006f          	j	800029fc <matmul_naive+0xb0>
80002980:	fec42703          	lw	a4,-20(s0)
80002984:	00070793          	mv	a5,a4
80002988:	00479793          	slli	a5,a5,0x4
8000298c:	40e787b3          	sub	a5,a5,a4
80002990:	00379793          	slli	a5,a5,0x3
80002994:	00078713          	mv	a4,a5
80002998:	fdc42783          	lw	a5,-36(s0)
8000299c:	00e78733          	add	a4,a5,a4
800029a0:	fe442783          	lw	a5,-28(s0)
800029a4:	00279793          	slli	a5,a5,0x2
800029a8:	00f707b3          	add	a5,a4,a5
800029ac:	0007a683          	lw	a3,0(a5)
800029b0:	fe442703          	lw	a4,-28(s0)
800029b4:	00070793          	mv	a5,a4
800029b8:	00479793          	slli	a5,a5,0x4
800029bc:	40e787b3          	sub	a5,a5,a4
800029c0:	00379793          	slli	a5,a5,0x3
800029c4:	00078713          	mv	a4,a5
800029c8:	fd842783          	lw	a5,-40(s0)
800029cc:	00e78733          	add	a4,a5,a4
800029d0:	fe842783          	lw	a5,-24(s0)
800029d4:	00279793          	slli	a5,a5,0x2
800029d8:	00f707b3          	add	a5,a4,a5
800029dc:	0007a783          	lw	a5,0(a5)
800029e0:	02f687b3          	mul	a5,a3,a5
800029e4:	fe042703          	lw	a4,-32(s0)
800029e8:	00f707b3          	add	a5,a4,a5
800029ec:	fef42023          	sw	a5,-32(s0)
800029f0:	fe442783          	lw	a5,-28(s0)
800029f4:	00178793          	addi	a5,a5,1
800029f8:	fef42223          	sw	a5,-28(s0)
800029fc:	fe442703          	lw	a4,-28(s0)
80002a00:	01d00793          	li	a5,29
80002a04:	f6e7dee3          	bge	a5,a4,80002980 <matmul_naive+0x34>
80002a08:	fec42703          	lw	a4,-20(s0)
80002a0c:	00070793          	mv	a5,a4
80002a10:	00479793          	slli	a5,a5,0x4
80002a14:	40e787b3          	sub	a5,a5,a4
80002a18:	00379793          	slli	a5,a5,0x3
80002a1c:	00078713          	mv	a4,a5
80002a20:	fd442783          	lw	a5,-44(s0)
80002a24:	00e78733          	add	a4,a5,a4
80002a28:	fe842783          	lw	a5,-24(s0)
80002a2c:	00279793          	slli	a5,a5,0x2
80002a30:	00f707b3          	add	a5,a4,a5
80002a34:	fe042703          	lw	a4,-32(s0)
80002a38:	00e7a023          	sw	a4,0(a5)
80002a3c:	fe842783          	lw	a5,-24(s0)
80002a40:	00178793          	addi	a5,a5,1
80002a44:	fef42423          	sw	a5,-24(s0)
80002a48:	fe842703          	lw	a4,-24(s0)
80002a4c:	01d00793          	li	a5,29
80002a50:	f2e7d2e3          	bge	a5,a4,80002974 <matmul_naive+0x28>
80002a54:	fec42783          	lw	a5,-20(s0)
80002a58:	00178793          	addi	a5,a5,1
80002a5c:	fef42623          	sw	a5,-20(s0)
80002a60:	fec42703          	lw	a4,-20(s0)
80002a64:	01d00793          	li	a5,29
80002a68:	f0e7d2e3          	bge	a5,a4,8000296c <matmul_naive+0x20>
80002a6c:	00000013          	nop
80002a70:	02c12403          	lw	s0,44(sp)
80002a74:	03010113          	addi	sp,sp,48
80002a78:	00008067          	ret

80002a7c <matmul_transpose>:
80002a7c:	81010113          	addi	sp,sp,-2032
80002a80:	7e812623          	sw	s0,2028(sp)
80002a84:	7f010413          	addi	s0,sp,2032
80002a88:	9b010113          	addi	sp,sp,-1616
80002a8c:	fffff7b7          	lui	a5,0xfffff
80002a90:	ff040713          	addi	a4,s0,-16
80002a94:	00f707b3          	add	a5,a4,a5
80002a98:	1ca7ae23          	sw	a0,476(a5) # fffff1dc <__stack_top+0x7ffef1dc>
80002a9c:	fffff7b7          	lui	a5,0xfffff
80002aa0:	ff040713          	addi	a4,s0,-16
80002aa4:	00f707b3          	add	a5,a4,a5
80002aa8:	1cb7ac23          	sw	a1,472(a5) # fffff1d8 <__stack_top+0x7ffef1d8>
80002aac:	fffff7b7          	lui	a5,0xfffff
80002ab0:	ff040713          	addi	a4,s0,-16
80002ab4:	00f707b3          	add	a5,a4,a5
80002ab8:	1cc7aa23          	sw	a2,468(a5) # fffff1d4 <__stack_top+0x7ffef1d4>
80002abc:	fe042623          	sw	zero,-20(s0)
80002ac0:	0a00006f          	j	80002b60 <matmul_transpose+0xe4>
80002ac4:	fe042423          	sw	zero,-24(s0)
80002ac8:	0800006f          	j	80002b48 <matmul_transpose+0xcc>
80002acc:	fec42703          	lw	a4,-20(s0)
80002ad0:	00070793          	mv	a5,a4
80002ad4:	00479793          	slli	a5,a5,0x4
80002ad8:	40e787b3          	sub	a5,a5,a4
80002adc:	00379793          	slli	a5,a5,0x3
80002ae0:	00078713          	mv	a4,a5
80002ae4:	fffff7b7          	lui	a5,0xfffff
80002ae8:	ff040693          	addi	a3,s0,-16
80002aec:	00f687b3          	add	a5,a3,a5
80002af0:	1d87a783          	lw	a5,472(a5) # fffff1d8 <__stack_top+0x7ffef1d8>
80002af4:	00e78733          	add	a4,a5,a4
80002af8:	fe842783          	lw	a5,-24(s0)
80002afc:	00279793          	slli	a5,a5,0x2
80002b00:	00f707b3          	add	a5,a4,a5
80002b04:	0007a683          	lw	a3,0(a5)
80002b08:	fffff7b7          	lui	a5,0xfffff
80002b0c:	ff040713          	addi	a4,s0,-16
80002b10:	00f70633          	add	a2,a4,a5
80002b14:	fe842703          	lw	a4,-24(s0)
80002b18:	00070793          	mv	a5,a4
80002b1c:	00479793          	slli	a5,a5,0x4
80002b20:	40e787b3          	sub	a5,a5,a4
80002b24:	00179793          	slli	a5,a5,0x1
80002b28:	fec42703          	lw	a4,-20(s0)
80002b2c:	00e787b3          	add	a5,a5,a4
80002b30:	00279793          	slli	a5,a5,0x2
80002b34:	00f607b3          	add	a5,a2,a5
80002b38:	1ed7a023          	sw	a3,480(a5) # fffff1e0 <__stack_top+0x7ffef1e0>
80002b3c:	fe842783          	lw	a5,-24(s0)
80002b40:	00178793          	addi	a5,a5,1
80002b44:	fef42423          	sw	a5,-24(s0)
80002b48:	fe842703          	lw	a4,-24(s0)
80002b4c:	01d00793          	li	a5,29
80002b50:	f6e7dee3          	bge	a5,a4,80002acc <matmul_transpose+0x50>
80002b54:	fec42783          	lw	a5,-20(s0)
80002b58:	00178793          	addi	a5,a5,1
80002b5c:	fef42623          	sw	a5,-20(s0)
80002b60:	fec42703          	lw	a4,-20(s0)
80002b64:	01d00793          	li	a5,29
80002b68:	f4e7dee3          	bge	a5,a4,80002ac4 <matmul_transpose+0x48>
80002b6c:	fe042623          	sw	zero,-20(s0)
80002b70:	1140006f          	j	80002c84 <matmul_transpose+0x208>
80002b74:	fe042423          	sw	zero,-24(s0)
80002b78:	0f40006f          	j	80002c6c <matmul_transpose+0x1f0>
80002b7c:	fe042023          	sw	zero,-32(s0)
80002b80:	fe042223          	sw	zero,-28(s0)
80002b84:	0900006f          	j	80002c14 <matmul_transpose+0x198>
80002b88:	fec42703          	lw	a4,-20(s0)
80002b8c:	00070793          	mv	a5,a4
80002b90:	00479793          	slli	a5,a5,0x4
80002b94:	40e787b3          	sub	a5,a5,a4
80002b98:	00379793          	slli	a5,a5,0x3
80002b9c:	00078713          	mv	a4,a5
80002ba0:	fffff7b7          	lui	a5,0xfffff
80002ba4:	ff040693          	addi	a3,s0,-16
80002ba8:	00f687b3          	add	a5,a3,a5
80002bac:	1dc7a783          	lw	a5,476(a5) # fffff1dc <__stack_top+0x7ffef1dc>
80002bb0:	00e78733          	add	a4,a5,a4
80002bb4:	fe442783          	lw	a5,-28(s0)
80002bb8:	00279793          	slli	a5,a5,0x2
80002bbc:	00f707b3          	add	a5,a4,a5
80002bc0:	0007a683          	lw	a3,0(a5)
80002bc4:	fffff7b7          	lui	a5,0xfffff
80002bc8:	ff040713          	addi	a4,s0,-16
80002bcc:	00f70633          	add	a2,a4,a5
80002bd0:	fe842703          	lw	a4,-24(s0)
80002bd4:	00070793          	mv	a5,a4
80002bd8:	00479793          	slli	a5,a5,0x4
80002bdc:	40e787b3          	sub	a5,a5,a4
80002be0:	00179793          	slli	a5,a5,0x1
80002be4:	fe442703          	lw	a4,-28(s0)
80002be8:	00e787b3          	add	a5,a5,a4
80002bec:	00279793          	slli	a5,a5,0x2
80002bf0:	00f607b3          	add	a5,a2,a5
80002bf4:	1e07a783          	lw	a5,480(a5) # fffff1e0 <__stack_top+0x7ffef1e0>
80002bf8:	02f687b3          	mul	a5,a3,a5
80002bfc:	fe042703          	lw	a4,-32(s0)
80002c00:	00f707b3          	add	a5,a4,a5
80002c04:	fef42023          	sw	a5,-32(s0)
80002c08:	fe442783          	lw	a5,-28(s0)
80002c0c:	00178793          	addi	a5,a5,1
80002c10:	fef42223          	sw	a5,-28(s0)
80002c14:	fe442703          	lw	a4,-28(s0)
80002c18:	01d00793          	li	a5,29
80002c1c:	f6e7d6e3          	bge	a5,a4,80002b88 <matmul_transpose+0x10c>
80002c20:	fec42703          	lw	a4,-20(s0)
80002c24:	00070793          	mv	a5,a4
80002c28:	00479793          	slli	a5,a5,0x4
80002c2c:	40e787b3          	sub	a5,a5,a4
80002c30:	00379793          	slli	a5,a5,0x3
80002c34:	00078713          	mv	a4,a5
80002c38:	fffff7b7          	lui	a5,0xfffff
80002c3c:	ff040693          	addi	a3,s0,-16
80002c40:	00f687b3          	add	a5,a3,a5
80002c44:	1d47a783          	lw	a5,468(a5) # fffff1d4 <__stack_top+0x7ffef1d4>
80002c48:	00e78733          	add	a4,a5,a4
80002c4c:	fe842783          	lw	a5,-24(s0)
80002c50:	00279793          	slli	a5,a5,0x2
80002c54:	00f707b3          	add	a5,a4,a5
80002c58:	fe042703          	lw	a4,-32(s0)
80002c5c:	00e7a023          	sw	a4,0(a5)
80002c60:	fe842783          	lw	a5,-24(s0)
80002c64:	00178793          	addi	a5,a5,1
80002c68:	fef42423          	sw	a5,-24(s0)
80002c6c:	fe842703          	lw	a4,-24(s0)
80002c70:	01d00793          	li	a5,29
80002c74:	f0e7d4e3          	bge	a5,a4,80002b7c <matmul_transpose+0x100>
80002c78:	fec42783          	lw	a5,-20(s0)
80002c7c:	00178793          	addi	a5,a5,1
80002c80:	fef42623          	sw	a5,-20(s0)
80002c84:	fec42703          	lw	a4,-20(s0)
80002c88:	01d00793          	li	a5,29
80002c8c:	eee7d4e3          	bge	a5,a4,80002b74 <matmul_transpose+0xf8>
80002c90:	00000013          	nop
80002c94:	65010113          	addi	sp,sp,1616
80002c98:	7ec12403          	lw	s0,2028(sp)
80002c9c:	7f010113          	addi	sp,sp,2032
80002ca0:	00008067          	ret

80002ca4 <verify>:
80002ca4:	fd010113          	addi	sp,sp,-48
80002ca8:	02812623          	sw	s0,44(sp)
80002cac:	03010413          	addi	s0,sp,48
80002cb0:	fca42e23          	sw	a0,-36(s0)
80002cb4:	fcb42c23          	sw	a1,-40(s0)
80002cb8:	fe042623          	sw	zero,-20(s0)
80002cbc:	09c0006f          	j	80002d58 <verify+0xb4>
80002cc0:	fe042423          	sw	zero,-24(s0)
80002cc4:	07c0006f          	j	80002d40 <verify+0x9c>
80002cc8:	fec42703          	lw	a4,-20(s0)
80002ccc:	00070793          	mv	a5,a4
80002cd0:	00479793          	slli	a5,a5,0x4
80002cd4:	40e787b3          	sub	a5,a5,a4
80002cd8:	00379793          	slli	a5,a5,0x3
80002cdc:	00078713          	mv	a4,a5
80002ce0:	fdc42783          	lw	a5,-36(s0)
80002ce4:	00e78733          	add	a4,a5,a4
80002ce8:	fe842783          	lw	a5,-24(s0)
80002cec:	00279793          	slli	a5,a5,0x2
80002cf0:	00f707b3          	add	a5,a4,a5
80002cf4:	0007a683          	lw	a3,0(a5)
80002cf8:	fec42703          	lw	a4,-20(s0)
80002cfc:	00070793          	mv	a5,a4
80002d00:	00479793          	slli	a5,a5,0x4
80002d04:	40e787b3          	sub	a5,a5,a4
80002d08:	00379793          	slli	a5,a5,0x3
80002d0c:	00078713          	mv	a4,a5
80002d10:	fd842783          	lw	a5,-40(s0)
80002d14:	00e78733          	add	a4,a5,a4
80002d18:	fe842783          	lw	a5,-24(s0)
80002d1c:	00279793          	slli	a5,a5,0x2
80002d20:	00f707b3          	add	a5,a4,a5
80002d24:	0007a783          	lw	a5,0(a5)
80002d28:	00f68663          	beq	a3,a5,80002d34 <verify+0x90>
80002d2c:	00000793          	li	a5,0
80002d30:	0380006f          	j	80002d68 <verify+0xc4>
80002d34:	fe842783          	lw	a5,-24(s0)
80002d38:	00178793          	addi	a5,a5,1
80002d3c:	fef42423          	sw	a5,-24(s0)
80002d40:	fe842703          	lw	a4,-24(s0)
80002d44:	01d00793          	li	a5,29
80002d48:	f8e7d0e3          	bge	a5,a4,80002cc8 <verify+0x24>
80002d4c:	fec42783          	lw	a5,-20(s0)
80002d50:	00178793          	addi	a5,a5,1
80002d54:	fef42623          	sw	a5,-20(s0)
80002d58:	fec42703          	lw	a4,-20(s0)
80002d5c:	01d00793          	li	a5,29
80002d60:	f6e7d0e3          	bge	a5,a4,80002cc0 <verify+0x1c>
80002d64:	00100793          	li	a5,1
80002d68:	00078513          	mv	a0,a5
80002d6c:	02c12403          	lw	s0,44(sp)
80002d70:	03010113          	addi	sp,sp,48
80002d74:	00008067          	ret

80002d78 <init_matrix>:
80002d78:	fd010113          	addi	sp,sp,-48
80002d7c:	02812623          	sw	s0,44(sp)
80002d80:	03010413          	addi	s0,sp,48
80002d84:	fca42e23          	sw	a0,-36(s0)
80002d88:	fcb42c23          	sw	a1,-40(s0)
80002d8c:	fe042623          	sw	zero,-20(s0)
80002d90:	07c0006f          	j	80002e0c <init_matrix+0x94>
80002d94:	fe042423          	sw	zero,-24(s0)
80002d98:	05c0006f          	j	80002df4 <init_matrix+0x7c>
80002d9c:	fec42703          	lw	a4,-20(s0)
80002da0:	fe842783          	lw	a5,-24(s0)
80002da4:	02f70733          	mul	a4,a4,a5
80002da8:	fd842783          	lw	a5,-40(s0)
80002dac:	00f70633          	add	a2,a4,a5
80002db0:	fec42703          	lw	a4,-20(s0)
80002db4:	00070793          	mv	a5,a4
80002db8:	00479793          	slli	a5,a5,0x4
80002dbc:	40e787b3          	sub	a5,a5,a4
80002dc0:	00379793          	slli	a5,a5,0x3
80002dc4:	00078713          	mv	a4,a5
80002dc8:	fdc42783          	lw	a5,-36(s0)
80002dcc:	00e786b3          	add	a3,a5,a4
80002dd0:	06400793          	li	a5,100
80002dd4:	02f66733          	rem	a4,a2,a5
80002dd8:	fe842783          	lw	a5,-24(s0)
80002ddc:	00279793          	slli	a5,a5,0x2
80002de0:	00f687b3          	add	a5,a3,a5
80002de4:	00e7a023          	sw	a4,0(a5)
80002de8:	fe842783          	lw	a5,-24(s0)
80002dec:	00178793          	addi	a5,a5,1
80002df0:	fef42423          	sw	a5,-24(s0)
80002df4:	fe842703          	lw	a4,-24(s0)
80002df8:	01d00793          	li	a5,29
80002dfc:	fae7d0e3          	bge	a5,a4,80002d9c <init_matrix+0x24>
80002e00:	fec42783          	lw	a5,-20(s0)
80002e04:	00178793          	addi	a5,a5,1
80002e08:	fef42623          	sw	a5,-20(s0)
80002e0c:	fec42703          	lw	a4,-20(s0)
80002e10:	01d00793          	li	a5,29
80002e14:	f8e7d0e3          	bge	a5,a4,80002d94 <init_matrix+0x1c>
80002e18:	00000013          	nop
80002e1c:	02c12403          	lw	s0,44(sp)
80002e20:	03010113          	addi	sp,sp,48
80002e24:	00008067          	ret

80002e28 <is_prime>:
80002e28:	fd010113          	addi	sp,sp,-48
80002e2c:	02812623          	sw	s0,44(sp)
80002e30:	03010413          	addi	s0,sp,48
80002e34:	fca42e23          	sw	a0,-36(s0)
80002e38:	fdc42703          	lw	a4,-36(s0)
80002e3c:	00100793          	li	a5,1
80002e40:	00e7c663          	blt	a5,a4,80002e4c <is_prime+0x24>
80002e44:	00000793          	li	a5,0
80002e48:	04c0006f          	j	80002e94 <is_prime+0x6c>
80002e4c:	00200793          	li	a5,2
80002e50:	fef42623          	sw	a5,-20(s0)
80002e54:	0280006f          	j	80002e7c <is_prime+0x54>
80002e58:	fdc42703          	lw	a4,-36(s0)
80002e5c:	fec42783          	lw	a5,-20(s0)
80002e60:	02f767b3          	rem	a5,a4,a5
80002e64:	00079663          	bnez	a5,80002e70 <is_prime+0x48>
80002e68:	00000793          	li	a5,0
80002e6c:	0280006f          	j	80002e94 <is_prime+0x6c>
80002e70:	fec42783          	lw	a5,-20(s0)
80002e74:	00178793          	addi	a5,a5,1
80002e78:	fef42623          	sw	a5,-20(s0)
80002e7c:	fec42703          	lw	a4,-20(s0)
80002e80:	fec42783          	lw	a5,-20(s0)
80002e84:	02f707b3          	mul	a5,a4,a5
80002e88:	fdc42703          	lw	a4,-36(s0)
80002e8c:	fcf756e3          	bge	a4,a5,80002e58 <is_prime+0x30>
80002e90:	00100793          	li	a5,1
80002e94:	00078513          	mv	a0,a5
80002e98:	02c12403          	lw	s0,44(sp)
80002e9c:	03010113          	addi	sp,sp,48
80002ea0:	00008067          	ret

80002ea4 <validate_prime_calculation>:
80002ea4:	fd010113          	addi	sp,sp,-48
80002ea8:	02112623          	sw	ra,44(sp)
80002eac:	02812423          	sw	s0,40(sp)
80002eb0:	03010413          	addi	s0,sp,48
80002eb4:	fe042623          	sw	zero,-20(s0)
80002eb8:	fe042423          	sw	zero,-24(s0)
80002ebc:	00200793          	li	a5,2
80002ec0:	fef42223          	sw	a5,-28(s0)
80002ec4:	0300006f          	j	80002ef4 <validate_prime_calculation+0x50>
80002ec8:	fe442503          	lw	a0,-28(s0)
80002ecc:	00000097          	auipc	ra,0x0
80002ed0:	f5c080e7          	jalr	-164(ra) # 80002e28 <is_prime>
80002ed4:	00050793          	mv	a5,a0
80002ed8:	00078863          	beqz	a5,80002ee8 <validate_prime_calculation+0x44>
80002edc:	fe842783          	lw	a5,-24(s0)
80002ee0:	00178793          	addi	a5,a5,1
80002ee4:	fef42423          	sw	a5,-24(s0)
80002ee8:	fe442783          	lw	a5,-28(s0)
80002eec:	00178793          	addi	a5,a5,1
80002ef0:	fef42223          	sw	a5,-28(s0)
80002ef4:	fe442703          	lw	a4,-28(s0)
80002ef8:	000017b7          	lui	a5,0x1
80002efc:	bb878793          	addi	a5,a5,-1096 # bb8 <_jump-0x80001448>
80002f00:	fce7d4e3          	bge	a5,a4,80002ec8 <validate_prime_calculation+0x24>
80002f04:	fe042023          	sw	zero,-32(s0)
80002f08:	02c0006f          	j	80002f34 <validate_prime_calculation+0x90>
80002f0c:	800057b7          	lui	a5,0x80005
80002f10:	fe042703          	lw	a4,-32(s0)
80002f14:	00271713          	slli	a4,a4,0x2
80002f18:	89078793          	addi	a5,a5,-1904 # 80004890 <__stack_top+0xffff4890>
80002f1c:	00f707b3          	add	a5,a4,a5
80002f20:	00100713          	li	a4,1
80002f24:	00e7a023          	sw	a4,0(a5)
80002f28:	fe042783          	lw	a5,-32(s0)
80002f2c:	00178793          	addi	a5,a5,1
80002f30:	fef42023          	sw	a5,-32(s0)
80002f34:	fe042703          	lw	a4,-32(s0)
80002f38:	000017b7          	lui	a5,0x1
80002f3c:	bb878793          	addi	a5,a5,-1096 # bb8 <_jump-0x80001448>
80002f40:	fce7d6e3          	bge	a5,a4,80002f0c <validate_prime_calculation+0x68>
80002f44:	800057b7          	lui	a5,0x80005
80002f48:	89078793          	addi	a5,a5,-1904 # 80004890 <__stack_top+0xffff4890>
80002f4c:	0007a423          	sw	zero,8(a5)
80002f50:	00200793          	li	a5,2
80002f54:	fcf42e23          	sw	a5,-36(s0)
80002f58:	0800006f          	j	80002fd8 <validate_prime_calculation+0x134>
80002f5c:	800057b7          	lui	a5,0x80005
80002f60:	fdc42703          	lw	a4,-36(s0)
80002f64:	00271713          	slli	a4,a4,0x2
80002f68:	89078793          	addi	a5,a5,-1904 # 80004890 <__stack_top+0xffff4890>
80002f6c:	00f707b3          	add	a5,a4,a5
80002f70:	0007a783          	lw	a5,0(a5)
80002f74:	04078c63          	beqz	a5,80002fcc <validate_prime_calculation+0x128>
80002f78:	fec42783          	lw	a5,-20(s0)
80002f7c:	00178793          	addi	a5,a5,1
80002f80:	fef42623          	sw	a5,-20(s0)
80002f84:	fdc42783          	lw	a5,-36(s0)
80002f88:	00179793          	slli	a5,a5,0x1
80002f8c:	fcf42c23          	sw	a5,-40(s0)
80002f90:	02c0006f          	j	80002fbc <validate_prime_calculation+0x118>
80002f94:	800057b7          	lui	a5,0x80005
80002f98:	fd842703          	lw	a4,-40(s0)
80002f9c:	00271713          	slli	a4,a4,0x2
80002fa0:	89078793          	addi	a5,a5,-1904 # 80004890 <__stack_top+0xffff4890>
80002fa4:	00f707b3          	add	a5,a4,a5
80002fa8:	0007a023          	sw	zero,0(a5)
80002fac:	fd842703          	lw	a4,-40(s0)
80002fb0:	fdc42783          	lw	a5,-36(s0)
80002fb4:	00f707b3          	add	a5,a4,a5
80002fb8:	fcf42c23          	sw	a5,-40(s0)
80002fbc:	fd842703          	lw	a4,-40(s0)
80002fc0:	000017b7          	lui	a5,0x1
80002fc4:	bb878793          	addi	a5,a5,-1096 # bb8 <_jump-0x80001448>
80002fc8:	fce7d6e3          	bge	a5,a4,80002f94 <validate_prime_calculation+0xf0>
80002fcc:	fdc42783          	lw	a5,-36(s0)
80002fd0:	00178793          	addi	a5,a5,1
80002fd4:	fcf42e23          	sw	a5,-36(s0)
80002fd8:	fdc42703          	lw	a4,-36(s0)
80002fdc:	000017b7          	lui	a5,0x1
80002fe0:	bb878793          	addi	a5,a5,-1096 # bb8 <_jump-0x80001448>
80002fe4:	f6e7dce3          	bge	a5,a4,80002f5c <validate_prime_calculation+0xb8>
80002fe8:	fec42703          	lw	a4,-20(s0)
80002fec:	fe842783          	lw	a5,-24(s0)
80002ff0:	40f707b3          	sub	a5,a4,a5
80002ff4:	0017b793          	seqz	a5,a5
80002ff8:	0ff7f793          	andi	a5,a5,255
80002ffc:	00078513          	mv	a0,a5
80003000:	02c12083          	lw	ra,44(sp)
80003004:	02812403          	lw	s0,40(sp)
80003008:	03010113          	addi	sp,sp,48
8000300c:	00008067          	ret

80003010 <sort_insertion>:
80003010:	fd010113          	addi	sp,sp,-48
80003014:	02812623          	sw	s0,44(sp)
80003018:	03010413          	addi	s0,sp,48
8000301c:	fca42e23          	sw	a0,-36(s0)
80003020:	fcb42c23          	sw	a1,-40(s0)
80003024:	00100793          	li	a5,1
80003028:	fef42623          	sw	a5,-20(s0)
8000302c:	0b00006f          	j	800030dc <sort_insertion+0xcc>
80003030:	fec42783          	lw	a5,-20(s0)
80003034:	00279793          	slli	a5,a5,0x2
80003038:	fdc42703          	lw	a4,-36(s0)
8000303c:	00f707b3          	add	a5,a4,a5
80003040:	0007a783          	lw	a5,0(a5)
80003044:	fef42223          	sw	a5,-28(s0)
80003048:	fec42783          	lw	a5,-20(s0)
8000304c:	fff78793          	addi	a5,a5,-1
80003050:	fef42423          	sw	a5,-24(s0)
80003054:	03c0006f          	j	80003090 <sort_insertion+0x80>
80003058:	fe842783          	lw	a5,-24(s0)
8000305c:	00279793          	slli	a5,a5,0x2
80003060:	fdc42703          	lw	a4,-36(s0)
80003064:	00f70733          	add	a4,a4,a5
80003068:	fe842783          	lw	a5,-24(s0)
8000306c:	00178793          	addi	a5,a5,1
80003070:	00279793          	slli	a5,a5,0x2
80003074:	fdc42683          	lw	a3,-36(s0)
80003078:	00f687b3          	add	a5,a3,a5
8000307c:	00072703          	lw	a4,0(a4)
80003080:	00e7a023          	sw	a4,0(a5)
80003084:	fe842783          	lw	a5,-24(s0)
80003088:	fff78793          	addi	a5,a5,-1
8000308c:	fef42423          	sw	a5,-24(s0)
80003090:	fe842783          	lw	a5,-24(s0)
80003094:	0207c063          	bltz	a5,800030b4 <sort_insertion+0xa4>
80003098:	fe842783          	lw	a5,-24(s0)
8000309c:	00279793          	slli	a5,a5,0x2
800030a0:	fdc42703          	lw	a4,-36(s0)
800030a4:	00f707b3          	add	a5,a4,a5
800030a8:	0007a783          	lw	a5,0(a5)
800030ac:	fe442703          	lw	a4,-28(s0)
800030b0:	faf744e3          	blt	a4,a5,80003058 <sort_insertion+0x48>
800030b4:	fe842783          	lw	a5,-24(s0)
800030b8:	00178793          	addi	a5,a5,1
800030bc:	00279793          	slli	a5,a5,0x2
800030c0:	fdc42703          	lw	a4,-36(s0)
800030c4:	00f707b3          	add	a5,a4,a5
800030c8:	fe442703          	lw	a4,-28(s0)
800030cc:	00e7a023          	sw	a4,0(a5)
800030d0:	fec42783          	lw	a5,-20(s0)
800030d4:	00178793          	addi	a5,a5,1
800030d8:	fef42623          	sw	a5,-20(s0)
800030dc:	fec42703          	lw	a4,-20(s0)
800030e0:	fd842783          	lw	a5,-40(s0)
800030e4:	f4f746e3          	blt	a4,a5,80003030 <sort_insertion+0x20>
800030e8:	00000013          	nop
800030ec:	02c12403          	lw	s0,44(sp)
800030f0:	03010113          	addi	sp,sp,48
800030f4:	00008067          	ret

800030f8 <sort_selection>:
800030f8:	fd010113          	addi	sp,sp,-48
800030fc:	02812623          	sw	s0,44(sp)
80003100:	03010413          	addi	s0,sp,48
80003104:	fca42e23          	sw	a0,-36(s0)
80003108:	fcb42c23          	sw	a1,-40(s0)
8000310c:	fe042623          	sw	zero,-20(s0)
80003110:	0d80006f          	j	800031e8 <sort_selection+0xf0>
80003114:	fec42783          	lw	a5,-20(s0)
80003118:	fef42223          	sw	a5,-28(s0)
8000311c:	fec42783          	lw	a5,-20(s0)
80003120:	00178793          	addi	a5,a5,1
80003124:	fef42423          	sw	a5,-24(s0)
80003128:	0440006f          	j	8000316c <sort_selection+0x74>
8000312c:	fe842783          	lw	a5,-24(s0)
80003130:	00279793          	slli	a5,a5,0x2
80003134:	fdc42703          	lw	a4,-36(s0)
80003138:	00f707b3          	add	a5,a4,a5
8000313c:	0007a703          	lw	a4,0(a5)
80003140:	fe442783          	lw	a5,-28(s0)
80003144:	00279793          	slli	a5,a5,0x2
80003148:	fdc42683          	lw	a3,-36(s0)
8000314c:	00f687b3          	add	a5,a3,a5
80003150:	0007a783          	lw	a5,0(a5)
80003154:	00f75663          	bge	a4,a5,80003160 <sort_selection+0x68>
80003158:	fe842783          	lw	a5,-24(s0)
8000315c:	fef42223          	sw	a5,-28(s0)
80003160:	fe842783          	lw	a5,-24(s0)
80003164:	00178793          	addi	a5,a5,1
80003168:	fef42423          	sw	a5,-24(s0)
8000316c:	fe842703          	lw	a4,-24(s0)
80003170:	fd842783          	lw	a5,-40(s0)
80003174:	faf74ce3          	blt	a4,a5,8000312c <sort_selection+0x34>
80003178:	fe442703          	lw	a4,-28(s0)
8000317c:	fec42783          	lw	a5,-20(s0)
80003180:	04f70e63          	beq	a4,a5,800031dc <sort_selection+0xe4>
80003184:	fec42783          	lw	a5,-20(s0)
80003188:	00279793          	slli	a5,a5,0x2
8000318c:	fdc42703          	lw	a4,-36(s0)
80003190:	00f707b3          	add	a5,a4,a5
80003194:	0007a783          	lw	a5,0(a5)
80003198:	fef42023          	sw	a5,-32(s0)
8000319c:	fe442783          	lw	a5,-28(s0)
800031a0:	00279793          	slli	a5,a5,0x2
800031a4:	fdc42703          	lw	a4,-36(s0)
800031a8:	00f70733          	add	a4,a4,a5
800031ac:	fec42783          	lw	a5,-20(s0)
800031b0:	00279793          	slli	a5,a5,0x2
800031b4:	fdc42683          	lw	a3,-36(s0)
800031b8:	00f687b3          	add	a5,a3,a5
800031bc:	00072703          	lw	a4,0(a4)
800031c0:	00e7a023          	sw	a4,0(a5)
800031c4:	fe442783          	lw	a5,-28(s0)
800031c8:	00279793          	slli	a5,a5,0x2
800031cc:	fdc42703          	lw	a4,-36(s0)
800031d0:	00f707b3          	add	a5,a4,a5
800031d4:	fe042703          	lw	a4,-32(s0)
800031d8:	00e7a023          	sw	a4,0(a5)
800031dc:	fec42783          	lw	a5,-20(s0)
800031e0:	00178793          	addi	a5,a5,1
800031e4:	fef42623          	sw	a5,-20(s0)
800031e8:	fd842783          	lw	a5,-40(s0)
800031ec:	fff78793          	addi	a5,a5,-1
800031f0:	fec42703          	lw	a4,-20(s0)
800031f4:	f2f740e3          	blt	a4,a5,80003114 <sort_selection+0x1c>
800031f8:	00000013          	nop
800031fc:	02c12403          	lw	s0,44(sp)
80003200:	03010113          	addi	sp,sp,48
80003204:	00008067          	ret

80003208 <array_equal>:
80003208:	fd010113          	addi	sp,sp,-48
8000320c:	02812623          	sw	s0,44(sp)
80003210:	03010413          	addi	s0,sp,48
80003214:	fca42e23          	sw	a0,-36(s0)
80003218:	fcb42c23          	sw	a1,-40(s0)
8000321c:	fcc42a23          	sw	a2,-44(s0)
80003220:	fe042623          	sw	zero,-20(s0)
80003224:	0440006f          	j	80003268 <array_equal+0x60>
80003228:	fec42783          	lw	a5,-20(s0)
8000322c:	00279793          	slli	a5,a5,0x2
80003230:	fdc42703          	lw	a4,-36(s0)
80003234:	00f707b3          	add	a5,a4,a5
80003238:	0007a703          	lw	a4,0(a5)
8000323c:	fec42783          	lw	a5,-20(s0)
80003240:	00279793          	slli	a5,a5,0x2
80003244:	fd842683          	lw	a3,-40(s0)
80003248:	00f687b3          	add	a5,a3,a5
8000324c:	0007a783          	lw	a5,0(a5)
80003250:	00f70663          	beq	a4,a5,8000325c <array_equal+0x54>
80003254:	00000793          	li	a5,0
80003258:	0200006f          	j	80003278 <array_equal+0x70>
8000325c:	fec42783          	lw	a5,-20(s0)
80003260:	00178793          	addi	a5,a5,1
80003264:	fef42623          	sw	a5,-20(s0)
80003268:	fec42703          	lw	a4,-20(s0)
8000326c:	fd442783          	lw	a5,-44(s0)
80003270:	faf74ce3          	blt	a4,a5,80003228 <array_equal+0x20>
80003274:	00100793          	li	a5,1
80003278:	00078513          	mv	a0,a5
8000327c:	02c12403          	lw	s0,44(sp)
80003280:	03010113          	addi	sp,sp,48
80003284:	00008067          	ret

80003288 <init_array>:
80003288:	fd010113          	addi	sp,sp,-48
8000328c:	02812623          	sw	s0,44(sp)
80003290:	03010413          	addi	s0,sp,48
80003294:	fca42e23          	sw	a0,-36(s0)
80003298:	fcb42c23          	sw	a1,-40(s0)
8000329c:	fcc42a23          	sw	a2,-44(s0)
800032a0:	fe042623          	sw	zero,-20(s0)
800032a4:	0640006f          	j	80003308 <init_array+0x80>
800032a8:	fd842703          	lw	a4,-40(s0)
800032ac:	00070793          	mv	a5,a4
800032b0:	00379793          	slli	a5,a5,0x3
800032b4:	00e787b3          	add	a5,a5,a4
800032b8:	00379793          	slli	a5,a5,0x3
800032bc:	00e78733          	add	a4,a5,a4
800032c0:	fd442783          	lw	a5,-44(s0)
800032c4:	00078693          	mv	a3,a5
800032c8:	00579793          	slli	a5,a5,0x5
800032cc:	40f687b3          	sub	a5,a3,a5
800032d0:	00f70733          	add	a4,a4,a5
800032d4:	fec42783          	lw	a5,-20(s0)
800032d8:	00f706b3          	add	a3,a4,a5
800032dc:	fec42783          	lw	a5,-20(s0)
800032e0:	00279793          	slli	a5,a5,0x2
800032e4:	fdc42703          	lw	a4,-36(s0)
800032e8:	00f707b3          	add	a5,a4,a5
800032ec:	00003737          	lui	a4,0x3
800032f0:	03770713          	addi	a4,a4,55 # 3037 <_jump-0x7fffefc9>
800032f4:	02e6e733          	rem	a4,a3,a4
800032f8:	00e7a023          	sw	a4,0(a5)
800032fc:	fec42783          	lw	a5,-20(s0)
80003300:	00178793          	addi	a5,a5,1
80003304:	fef42623          	sw	a5,-20(s0)
80003308:	fec42703          	lw	a4,-20(s0)
8000330c:	fd842783          	lw	a5,-40(s0)
80003310:	f8f74ce3          	blt	a4,a5,800032a8 <init_array+0x20>
80003314:	00000013          	nop
80003318:	02c12403          	lw	s0,44(sp)
8000331c:	03010113          	addi	sp,sp,48
80003320:	00008067          	ret

80003324 <__udivdi3>:
80003324:	00068793          	mv	a5,a3
80003328:	00060893          	mv	a7,a2
8000332c:	00050313          	mv	t1,a0
80003330:	00058813          	mv	a6,a1
80003334:	1a069663          	bnez	a3,800034e0 <__udivdi3+0x1bc>
80003338:	0cc5fc63          	bgeu	a1,a2,80003410 <__udivdi3+0xec>
8000333c:	00010737          	lui	a4,0x10
80003340:	22e66463          	bltu	a2,a4,80003568 <__udivdi3+0x244>
80003344:	010007b7          	lui	a5,0x1000
80003348:	40f66a63          	bltu	a2,a5,8000375c <__udivdi3+0x438>
8000334c:	01865693          	srli	a3,a2,0x18
80003350:	01800793          	li	a5,24
80003354:	00000717          	auipc	a4,0x0
80003358:	52c70713          	addi	a4,a4,1324 # 80003880 <__clz_tab>
8000335c:	00d70733          	add	a4,a4,a3
80003360:	00074703          	lbu	a4,0(a4)
80003364:	00f707b3          	add	a5,a4,a5
80003368:	02000713          	li	a4,32
8000336c:	40f70733          	sub	a4,a4,a5
80003370:	00070c63          	beqz	a4,80003388 <__udivdi3+0x64>
80003374:	00e59833          	sll	a6,a1,a4
80003378:	00f557b3          	srl	a5,a0,a5
8000337c:	00e618b3          	sll	a7,a2,a4
80003380:	0107e833          	or	a6,a5,a6
80003384:	00e51333          	sll	t1,a0,a4
80003388:	0108d613          	srli	a2,a7,0x10
8000338c:	02c85533          	divu	a0,a6,a2
80003390:	01089693          	slli	a3,a7,0x10
80003394:	0106d693          	srli	a3,a3,0x10
80003398:	01035793          	srli	a5,t1,0x10
8000339c:	02c87733          	remu	a4,a6,a2
800033a0:	02a685b3          	mul	a1,a3,a0
800033a4:	01071713          	slli	a4,a4,0x10
800033a8:	00f76833          	or	a6,a4,a5
800033ac:	00b87c63          	bgeu	a6,a1,800033c4 <__udivdi3+0xa0>
800033b0:	01180833          	add	a6,a6,a7
800033b4:	fff50793          	addi	a5,a0,-1
800033b8:	01186463          	bltu	a6,a7,800033c0 <__udivdi3+0x9c>
800033bc:	3eb86863          	bltu	a6,a1,800037ac <__udivdi3+0x488>
800033c0:	00078513          	mv	a0,a5
800033c4:	40b80833          	sub	a6,a6,a1
800033c8:	02c85733          	divu	a4,a6,a2
800033cc:	01031313          	slli	t1,t1,0x10
800033d0:	01035313          	srli	t1,t1,0x10
800033d4:	02c87833          	remu	a6,a6,a2
800033d8:	02e686b3          	mul	a3,a3,a4
800033dc:	01081813          	slli	a6,a6,0x10
800033e0:	00686833          	or	a6,a6,t1
800033e4:	00d87e63          	bgeu	a6,a3,80003400 <__udivdi3+0xdc>
800033e8:	01088833          	add	a6,a7,a6
800033ec:	fff70793          	addi	a5,a4,-1
800033f0:	01186663          	bltu	a6,a7,800033fc <__udivdi3+0xd8>
800033f4:	ffe70713          	addi	a4,a4,-2
800033f8:	00d86463          	bltu	a6,a3,80003400 <__udivdi3+0xdc>
800033fc:	00078713          	mv	a4,a5
80003400:	01051513          	slli	a0,a0,0x10
80003404:	00e56533          	or	a0,a0,a4
80003408:	00000593          	li	a1,0
8000340c:	00008067          	ret
80003410:	00061663          	bnez	a2,8000341c <__udivdi3+0xf8>
80003414:	00100713          	li	a4,1
80003418:	02c758b3          	divu	a7,a4,a2
8000341c:	00010737          	lui	a4,0x10
80003420:	12e8e863          	bltu	a7,a4,80003550 <__udivdi3+0x22c>
80003424:	010007b7          	lui	a5,0x1000
80003428:	34f8e063          	bltu	a7,a5,80003768 <__udivdi3+0x444>
8000342c:	0188d693          	srli	a3,a7,0x18
80003430:	01800793          	li	a5,24
80003434:	00000717          	auipc	a4,0x0
80003438:	44c70713          	addi	a4,a4,1100 # 80003880 <__clz_tab>
8000343c:	00d70733          	add	a4,a4,a3
80003440:	00074683          	lbu	a3,0(a4)
80003444:	00f686b3          	add	a3,a3,a5
80003448:	02000793          	li	a5,32
8000344c:	40d787b3          	sub	a5,a5,a3
80003450:	12079863          	bnez	a5,80003580 <__udivdi3+0x25c>
80003454:	01089e93          	slli	t4,a7,0x10
80003458:	41158733          	sub	a4,a1,a7
8000345c:	0108df13          	srli	t5,a7,0x10
80003460:	010ede93          	srli	t4,t4,0x10
80003464:	00100593          	li	a1,1
80003468:	01035793          	srli	a5,t1,0x10
8000346c:	03e75533          	divu	a0,a4,t5
80003470:	03e77733          	remu	a4,a4,t5
80003474:	03d506b3          	mul	a3,a0,t4
80003478:	01071713          	slli	a4,a4,0x10
8000347c:	00f767b3          	or	a5,a4,a5
80003480:	00d7fc63          	bgeu	a5,a3,80003498 <__udivdi3+0x174>
80003484:	011787b3          	add	a5,a5,a7
80003488:	fff50713          	addi	a4,a0,-1
8000348c:	0117e463          	bltu	a5,a7,80003494 <__udivdi3+0x170>
80003490:	32d7e463          	bltu	a5,a3,800037b8 <__udivdi3+0x494>
80003494:	00070513          	mv	a0,a4
80003498:	40d787b3          	sub	a5,a5,a3
8000349c:	03e7d733          	divu	a4,a5,t5
800034a0:	01031313          	slli	t1,t1,0x10
800034a4:	01035313          	srli	t1,t1,0x10
800034a8:	03e7f7b3          	remu	a5,a5,t5
800034ac:	03d70eb3          	mul	t4,a4,t4
800034b0:	01079793          	slli	a5,a5,0x10
800034b4:	0067e7b3          	or	a5,a5,t1
800034b8:	01d7fe63          	bgeu	a5,t4,800034d4 <__udivdi3+0x1b0>
800034bc:	00f887b3          	add	a5,a7,a5
800034c0:	fff70693          	addi	a3,a4,-1
800034c4:	0117e663          	bltu	a5,a7,800034d0 <__udivdi3+0x1ac>
800034c8:	ffe70713          	addi	a4,a4,-2
800034cc:	01d7e463          	bltu	a5,t4,800034d4 <__udivdi3+0x1b0>
800034d0:	00068713          	mv	a4,a3
800034d4:	01051513          	slli	a0,a0,0x10
800034d8:	00e56533          	or	a0,a0,a4
800034dc:	00008067          	ret
800034e0:	04d5e863          	bltu	a1,a3,80003530 <__udivdi3+0x20c>
800034e4:	000107b7          	lui	a5,0x10
800034e8:	04f6ea63          	bltu	a3,a5,8000353c <__udivdi3+0x218>
800034ec:	010007b7          	lui	a5,0x1000
800034f0:	26f6e063          	bltu	a3,a5,80003750 <__udivdi3+0x42c>
800034f4:	0186d713          	srli	a4,a3,0x18
800034f8:	01800813          	li	a6,24
800034fc:	00000797          	auipc	a5,0x0
80003500:	38478793          	addi	a5,a5,900 # 80003880 <__clz_tab>
80003504:	00e787b3          	add	a5,a5,a4
80003508:	0007c703          	lbu	a4,0(a5)
8000350c:	02000e13          	li	t3,32
80003510:	01070733          	add	a4,a4,a6
80003514:	40ee0e33          	sub	t3,t3,a4
80003518:	100e1663          	bnez	t3,80003624 <__udivdi3+0x300>
8000351c:	24b6ec63          	bltu	a3,a1,80003774 <__udivdi3+0x450>
80003520:	00c53533          	sltu	a0,a0,a2
80003524:	00154513          	xori	a0,a0,1
80003528:	00000593          	li	a1,0
8000352c:	00008067          	ret
80003530:	00000593          	li	a1,0
80003534:	00000513          	li	a0,0
80003538:	00008067          	ret
8000353c:	0ff00793          	li	a5,255
80003540:	24d7f063          	bgeu	a5,a3,80003780 <__udivdi3+0x45c>
80003544:	0086d713          	srli	a4,a3,0x8
80003548:	00800813          	li	a6,8
8000354c:	fb1ff06f          	j	800034fc <__udivdi3+0x1d8>
80003550:	0ff00713          	li	a4,255
80003554:	00088693          	mv	a3,a7
80003558:	ed177ee3          	bgeu	a4,a7,80003434 <__udivdi3+0x110>
8000355c:	0088d693          	srli	a3,a7,0x8
80003560:	00800793          	li	a5,8
80003564:	ed1ff06f          	j	80003434 <__udivdi3+0x110>
80003568:	0ff00713          	li	a4,255
8000356c:	00060693          	mv	a3,a2
80003570:	dec772e3          	bgeu	a4,a2,80003354 <__udivdi3+0x30>
80003574:	00865693          	srli	a3,a2,0x8
80003578:	00800793          	li	a5,8
8000357c:	dd9ff06f          	j	80003354 <__udivdi3+0x30>
80003580:	00f898b3          	sll	a7,a7,a5
80003584:	00d5d633          	srl	a2,a1,a3
80003588:	0108df13          	srli	t5,a7,0x10
8000358c:	03e65e33          	divu	t3,a2,t5
80003590:	00f59733          	sll	a4,a1,a5
80003594:	00d556b3          	srl	a3,a0,a3
80003598:	00e6e733          	or	a4,a3,a4
8000359c:	01089e93          	slli	t4,a7,0x10
800035a0:	010ede93          	srli	t4,t4,0x10
800035a4:	00f51333          	sll	t1,a0,a5
800035a8:	01075593          	srli	a1,a4,0x10
800035ac:	03e676b3          	remu	a3,a2,t5
800035b0:	03ce87b3          	mul	a5,t4,t3
800035b4:	01069693          	slli	a3,a3,0x10
800035b8:	00b6e6b3          	or	a3,a3,a1
800035bc:	00f6fe63          	bgeu	a3,a5,800035d8 <__udivdi3+0x2b4>
800035c0:	011686b3          	add	a3,a3,a7
800035c4:	fffe0613          	addi	a2,t3,-1
800035c8:	1d16ee63          	bltu	a3,a7,800037a4 <__udivdi3+0x480>
800035cc:	1cf6fc63          	bgeu	a3,a5,800037a4 <__udivdi3+0x480>
800035d0:	ffee0e13          	addi	t3,t3,-2
800035d4:	011686b3          	add	a3,a3,a7
800035d8:	40f686b3          	sub	a3,a3,a5
800035dc:	03e6d633          	divu	a2,a3,t5
800035e0:	01071793          	slli	a5,a4,0x10
800035e4:	0107d793          	srli	a5,a5,0x10
800035e8:	03e6f6b3          	remu	a3,a3,t5
800035ec:	02ce8533          	mul	a0,t4,a2
800035f0:	01069713          	slli	a4,a3,0x10
800035f4:	00f76733          	or	a4,a4,a5
800035f8:	00a77e63          	bgeu	a4,a0,80003614 <__udivdi3+0x2f0>
800035fc:	01170733          	add	a4,a4,a7
80003600:	fff60793          	addi	a5,a2,-1
80003604:	19176863          	bltu	a4,a7,80003794 <__udivdi3+0x470>
80003608:	18a77663          	bgeu	a4,a0,80003794 <__udivdi3+0x470>
8000360c:	ffe60613          	addi	a2,a2,-2
80003610:	01170733          	add	a4,a4,a7
80003614:	010e1593          	slli	a1,t3,0x10
80003618:	40a70733          	sub	a4,a4,a0
8000361c:	00c5e5b3          	or	a1,a1,a2
80003620:	e49ff06f          	j	80003468 <__udivdi3+0x144>
80003624:	00e657b3          	srl	a5,a2,a4
80003628:	01c696b3          	sll	a3,a3,t3
8000362c:	00d7e6b3          	or	a3,a5,a3
80003630:	00e5d333          	srl	t1,a1,a4
80003634:	0106df13          	srli	t5,a3,0x10
80003638:	03e357b3          	divu	a5,t1,t5
8000363c:	01069e93          	slli	t4,a3,0x10
80003640:	010ede93          	srli	t4,t4,0x10
80003644:	01c59833          	sll	a6,a1,t3
80003648:	00e55733          	srl	a4,a0,a4
8000364c:	01076833          	or	a6,a4,a6
80003650:	01085893          	srli	a7,a6,0x10
80003654:	01c61633          	sll	a2,a2,t3
80003658:	03e37333          	remu	t1,t1,t5
8000365c:	02fe85b3          	mul	a1,t4,a5
80003660:	01031313          	slli	t1,t1,0x10
80003664:	011368b3          	or	a7,t1,a7
80003668:	00b8fe63          	bgeu	a7,a1,80003684 <__udivdi3+0x360>
8000366c:	00d888b3          	add	a7,a7,a3
80003670:	fff78713          	addi	a4,a5,-1
80003674:	12d8e463          	bltu	a7,a3,8000379c <__udivdi3+0x478>
80003678:	12b8f263          	bgeu	a7,a1,8000379c <__udivdi3+0x478>
8000367c:	ffe78793          	addi	a5,a5,-2
80003680:	00d888b3          	add	a7,a7,a3
80003684:	40b888b3          	sub	a7,a7,a1
80003688:	03e8d733          	divu	a4,a7,t5
8000368c:	01081813          	slli	a6,a6,0x10
80003690:	01085813          	srli	a6,a6,0x10
80003694:	03e8f8b3          	remu	a7,a7,t5
80003698:	02ee8333          	mul	t1,t4,a4
8000369c:	01089893          	slli	a7,a7,0x10
800036a0:	0108e5b3          	or	a1,a7,a6
800036a4:	0065fe63          	bgeu	a1,t1,800036c0 <__udivdi3+0x39c>
800036a8:	00d585b3          	add	a1,a1,a3
800036ac:	fff70813          	addi	a6,a4,-1
800036b0:	0cd5ee63          	bltu	a1,a3,8000378c <__udivdi3+0x468>
800036b4:	0c65fc63          	bgeu	a1,t1,8000378c <__udivdi3+0x468>
800036b8:	ffe70713          	addi	a4,a4,-2
800036bc:	00d585b3          	add	a1,a1,a3
800036c0:	01079793          	slli	a5,a5,0x10
800036c4:	00010f37          	lui	t5,0x10
800036c8:	00e7e7b3          	or	a5,a5,a4
800036cc:	ffff0713          	addi	a4,t5,-1 # ffff <_jump-0x7fff2001>
800036d0:	00e7f6b3          	and	a3,a5,a4
800036d4:	0107d893          	srli	a7,a5,0x10
800036d8:	00e67733          	and	a4,a2,a4
800036dc:	01065613          	srli	a2,a2,0x10
800036e0:	02e68eb3          	mul	t4,a3,a4
800036e4:	406585b3          	sub	a1,a1,t1
800036e8:	02c686b3          	mul	a3,a3,a2
800036ec:	010ed813          	srli	a6,t4,0x10
800036f0:	02e88733          	mul	a4,a7,a4
800036f4:	00e686b3          	add	a3,a3,a4
800036f8:	00d806b3          	add	a3,a6,a3
800036fc:	02c88633          	mul	a2,a7,a2
80003700:	00e6f463          	bgeu	a3,a4,80003708 <__udivdi3+0x3e4>
80003704:	01e60633          	add	a2,a2,t5
80003708:	0106d893          	srli	a7,a3,0x10
8000370c:	00c88633          	add	a2,a7,a2
80003710:	02c5ea63          	bltu	a1,a2,80003744 <__udivdi3+0x420>
80003714:	00c58863          	beq	a1,a2,80003724 <__udivdi3+0x400>
80003718:	00078513          	mv	a0,a5
8000371c:	00000593          	li	a1,0
80003720:	00008067          	ret
80003724:	00010737          	lui	a4,0x10
80003728:	fff70713          	addi	a4,a4,-1 # ffff <_jump-0x7fff2001>
8000372c:	00e6f6b3          	and	a3,a3,a4
80003730:	01069693          	slli	a3,a3,0x10
80003734:	00eefeb3          	and	t4,t4,a4
80003738:	01c51533          	sll	a0,a0,t3
8000373c:	01d686b3          	add	a3,a3,t4
80003740:	fcd57ce3          	bgeu	a0,a3,80003718 <__udivdi3+0x3f4>
80003744:	fff78513          	addi	a0,a5,-1
80003748:	00000593          	li	a1,0
8000374c:	00008067          	ret
80003750:	0106d713          	srli	a4,a3,0x10
80003754:	01000813          	li	a6,16
80003758:	da5ff06f          	j	800034fc <__udivdi3+0x1d8>
8000375c:	01065693          	srli	a3,a2,0x10
80003760:	01000793          	li	a5,16
80003764:	bf1ff06f          	j	80003354 <__udivdi3+0x30>
80003768:	0108d693          	srli	a3,a7,0x10
8000376c:	01000793          	li	a5,16
80003770:	cc5ff06f          	j	80003434 <__udivdi3+0x110>
80003774:	00000593          	li	a1,0
80003778:	00100513          	li	a0,1
8000377c:	00008067          	ret
80003780:	00068713          	mv	a4,a3
80003784:	00000813          	li	a6,0
80003788:	d75ff06f          	j	800034fc <__udivdi3+0x1d8>
8000378c:	00080713          	mv	a4,a6
80003790:	f31ff06f          	j	800036c0 <__udivdi3+0x39c>
80003794:	00078613          	mv	a2,a5
80003798:	e7dff06f          	j	80003614 <__udivdi3+0x2f0>
8000379c:	00070793          	mv	a5,a4
800037a0:	ee5ff06f          	j	80003684 <__udivdi3+0x360>
800037a4:	00060e13          	mv	t3,a2
800037a8:	e31ff06f          	j	800035d8 <__udivdi3+0x2b4>
800037ac:	ffe50513          	addi	a0,a0,-2
800037b0:	01180833          	add	a6,a6,a7
800037b4:	c11ff06f          	j	800033c4 <__udivdi3+0xa0>
800037b8:	ffe50513          	addi	a0,a0,-2
800037bc:	011787b3          	add	a5,a5,a7
800037c0:	cd9ff06f          	j	80003498 <__udivdi3+0x174>

Disassembly of section .data:

800037c4 <__data_start>:
800037c4:	74726f73          	csrrsi	t5,0x747,4
800037c8:	7020                	flw	fs0,96(s0)
800037ca:	6f72                	flw	ft10,28(sp)
800037cc:	6d617267          	0x6d617267
800037d0:	6620                	flw	fs0,72(a2)
800037d2:	6961                	lui	s2,0x18
800037d4:	656c                	flw	fa1,76(a0)
800037d6:	2164                	fld	fs1,192(a0)
800037d8:	000a                	c.slli	zero,0x2
800037da:	0000                	unimp
800037dc:	7270                	flw	fa2,100(a2)
800037de:	6d69                	lui	s10,0x1a
800037e0:	2065                	jal	80003888 <__clz_tab+0x8>
800037e2:	7270                	flw	fa2,100(a2)
800037e4:	6172676f          	jal	a4,8002a5fa <__stack_top+0x1a5fa>
800037e8:	206d                	jal	80003892 <__clz_tab+0x12>
800037ea:	6166                	flw	ft2,88(sp)
800037ec:	6c69                	lui	s8,0x1a
800037ee:	6465                	lui	s0,0x19
800037f0:	0a21                	addi	s4,s4,8
800037f2:	0000                	unimp
800037f4:	20637263          	bgeu	t1,t1,800039f8 <__data_end+0x78>
800037f8:	7270                	flw	fa2,100(a2)
800037fa:	6172676f          	jal	a4,8002a610 <__stack_top+0x1a610>
800037fe:	206d                	jal	800038a8 <__clz_tab+0x28>
80003800:	6166                	flw	ft2,88(sp)
80003802:	6c69                	lui	s8,0x1a
80003804:	6465                	lui	s0,0x19
80003806:	0a21                	addi	s4,s4,8
80003808:	0000                	unimp
8000380a:	0000                	unimp
8000380c:	616d                	addi	sp,sp,240
8000380e:	7274                	flw	fa3,100(a2)
80003810:	7869                	lui	a6,0xffffa
80003812:	7020                	flw	fs0,96(s0)
80003814:	6f72                	flw	ft10,28(sp)
80003816:	6d617267          	0x6d617267
8000381a:	6620                	flw	fs0,72(a2)
8000381c:	6961                	lui	s2,0x18
8000381e:	656c                	flw	fa1,76(a0)
80003820:	2164                	fld	fs1,192(a0)
80003822:	000a                	c.slli	zero,0x2
80003824:	7366                	flw	ft6,120(sp)
80003826:	206d                	jal	800038d0 <__clz_tab+0x50>
80003828:	7270                	flw	fa2,100(a2)
8000382a:	6172676f          	jal	a4,8002a640 <__stack_top+0x1a640>
8000382e:	206d                	jal	800038d8 <__clz_tab+0x58>
80003830:	6166                	flw	ft2,88(sp)
80003832:	6c69                	lui	s8,0x1a
80003834:	6465                	lui	s0,0x19
80003836:	0a21                	addi	s4,s4,8
80003838:	0000                	unimp
8000383a:	0000                	unimp
8000383c:	6548                	flw	fa0,12(a0)
8000383e:	6c6c                	flw	fa1,92(s0)
80003840:	7266206f          	j	80065f66 <__stack_top+0x55f66>
80003844:	74206d6f          	jal	s10,80009f86 <B+0xa52>
80003848:	7365                	lui	t1,0xffff9
8000384a:	2074                	fld	fa3,192(s0)
8000384c:	65646f63          	bltu	s0,s6,80003eaa <__data_end+0x52a>
80003850:	0a21                	addi	s4,s4,8
80003852:	0000                	unimp
80003854:	6974                	flw	fa3,84(a0)
80003856:	203a6b63          	bltu	s4,gp,80003a6c <__data_end+0xec>
8000385a:	6c25                	lui	s8,0x9
8000385c:	0a64                	addi	s1,sp,284
8000385e:	0000                	unimp
80003860:	6554                	flw	fa3,12(a0)
80003862:	72207473          	csrrci	s0,0x722,0
80003866:	646e756f          	jal	a0,800eaeac <__stack_top+0xdaeac>
8000386a:	2520                	fld	fs0,72(a0)
8000386c:	0a64                	addi	s1,sp,284
8000386e:	0000                	unimp
80003870:	6f636573          	csrrsi	a0,0x6f6,6
80003874:	646e                	flw	fs0,216(sp)
80003876:	203a                	fld	ft0,392(sp)
80003878:	6c25                	lui	s8,0x9
8000387a:	0a64                	addi	s1,sp,284
8000387c:	0000                	unimp
	...

80003880 <__clz_tab>:
80003880:	0100                	addi	s0,sp,128
80003882:	0202                	c.slli64	tp
80003884:	03030303          	lb	t1,48(t1) # ffff9030 <__stack_top+0x7ffe9030>
80003888:	0404                	addi	s1,sp,512
8000388a:	0404                	addi	s1,sp,512
8000388c:	0404                	addi	s1,sp,512
8000388e:	0404                	addi	s1,sp,512
80003890:	0505                	addi	a0,a0,1
80003892:	0505                	addi	a0,a0,1
80003894:	0505                	addi	a0,a0,1
80003896:	0505                	addi	a0,a0,1
80003898:	0505                	addi	a0,a0,1
8000389a:	0505                	addi	a0,a0,1
8000389c:	0505                	addi	a0,a0,1
8000389e:	0505                	addi	a0,a0,1
800038a0:	0606                	slli	a2,a2,0x1
800038a2:	0606                	slli	a2,a2,0x1
800038a4:	0606                	slli	a2,a2,0x1
800038a6:	0606                	slli	a2,a2,0x1
800038a8:	0606                	slli	a2,a2,0x1
800038aa:	0606                	slli	a2,a2,0x1
800038ac:	0606                	slli	a2,a2,0x1
800038ae:	0606                	slli	a2,a2,0x1
800038b0:	0606                	slli	a2,a2,0x1
800038b2:	0606                	slli	a2,a2,0x1
800038b4:	0606                	slli	a2,a2,0x1
800038b6:	0606                	slli	a2,a2,0x1
800038b8:	0606                	slli	a2,a2,0x1
800038ba:	0606                	slli	a2,a2,0x1
800038bc:	0606                	slli	a2,a2,0x1
800038be:	0606                	slli	a2,a2,0x1
800038c0:	07070707          	0x7070707
800038c4:	07070707          	0x7070707
800038c8:	07070707          	0x7070707
800038cc:	07070707          	0x7070707
800038d0:	07070707          	0x7070707
800038d4:	07070707          	0x7070707
800038d8:	07070707          	0x7070707
800038dc:	07070707          	0x7070707
800038e0:	07070707          	0x7070707
800038e4:	07070707          	0x7070707
800038e8:	07070707          	0x7070707
800038ec:	07070707          	0x7070707
800038f0:	07070707          	0x7070707
800038f4:	07070707          	0x7070707
800038f8:	07070707          	0x7070707
800038fc:	07070707          	0x7070707
80003900:	0808                	addi	a0,sp,16
80003902:	0808                	addi	a0,sp,16
80003904:	0808                	addi	a0,sp,16
80003906:	0808                	addi	a0,sp,16
80003908:	0808                	addi	a0,sp,16
8000390a:	0808                	addi	a0,sp,16
8000390c:	0808                	addi	a0,sp,16
8000390e:	0808                	addi	a0,sp,16
80003910:	0808                	addi	a0,sp,16
80003912:	0808                	addi	a0,sp,16
80003914:	0808                	addi	a0,sp,16
80003916:	0808                	addi	a0,sp,16
80003918:	0808                	addi	a0,sp,16
8000391a:	0808                	addi	a0,sp,16
8000391c:	0808                	addi	a0,sp,16
8000391e:	0808                	addi	a0,sp,16
80003920:	0808                	addi	a0,sp,16
80003922:	0808                	addi	a0,sp,16
80003924:	0808                	addi	a0,sp,16
80003926:	0808                	addi	a0,sp,16
80003928:	0808                	addi	a0,sp,16
8000392a:	0808                	addi	a0,sp,16
8000392c:	0808                	addi	a0,sp,16
8000392e:	0808                	addi	a0,sp,16
80003930:	0808                	addi	a0,sp,16
80003932:	0808                	addi	a0,sp,16
80003934:	0808                	addi	a0,sp,16
80003936:	0808                	addi	a0,sp,16
80003938:	0808                	addi	a0,sp,16
8000393a:	0808                	addi	a0,sp,16
8000393c:	0808                	addi	a0,sp,16
8000393e:	0808                	addi	a0,sp,16
80003940:	0808                	addi	a0,sp,16
80003942:	0808                	addi	a0,sp,16
80003944:	0808                	addi	a0,sp,16
80003946:	0808                	addi	a0,sp,16
80003948:	0808                	addi	a0,sp,16
8000394a:	0808                	addi	a0,sp,16
8000394c:	0808                	addi	a0,sp,16
8000394e:	0808                	addi	a0,sp,16
80003950:	0808                	addi	a0,sp,16
80003952:	0808                	addi	a0,sp,16
80003954:	0808                	addi	a0,sp,16
80003956:	0808                	addi	a0,sp,16
80003958:	0808                	addi	a0,sp,16
8000395a:	0808                	addi	a0,sp,16
8000395c:	0808                	addi	a0,sp,16
8000395e:	0808                	addi	a0,sp,16
80003960:	0808                	addi	a0,sp,16
80003962:	0808                	addi	a0,sp,16
80003964:	0808                	addi	a0,sp,16
80003966:	0808                	addi	a0,sp,16
80003968:	0808                	addi	a0,sp,16
8000396a:	0808                	addi	a0,sp,16
8000396c:	0808                	addi	a0,sp,16
8000396e:	0808                	addi	a0,sp,16
80003970:	0808                	addi	a0,sp,16
80003972:	0808                	addi	a0,sp,16
80003974:	0808                	addi	a0,sp,16
80003976:	0808                	addi	a0,sp,16
80003978:	0808                	addi	a0,sp,16
8000397a:	0808                	addi	a0,sp,16
8000397c:	0808                	addi	a0,sp,16
8000397e:	0808                	addi	a0,sp,16

Disassembly of section .bss:

80003980 <C1>:
	...

80004790 <trace>:
	...

80004890 <prime_table>:
	...

80007784 <A>:
	...

80008594 <arr1>:
	...

80009534 <B>:
	...

8000a344 <C2>:
	...

8000b154 <crc_buffer>:
	...

8000b954 <arr2>:
	...

Disassembly of section .stack:

8000c8f4 <__stack_bottom>:
	...

Disassembly of section .comment:

00000000 <.comment>:
   0:	3a434347          	fmsub.d	ft6,ft6,ft4,ft7,rmm
   4:	2820                	fld	fs0,80(s0)
   6:	20554e47          	fmsub.s	ft8,fa0,ft5,ft4,rmm
   a:	434d                	li	t1,19
   c:	2055                	jal	b0 <_jump-0x80001f50>
   e:	6345                	lui	t1,0x11
  10:	696c                	flw	fa1,84(a0)
  12:	7370                	flw	fa2,100(a4)
  14:	2065                	jal	bc <_jump-0x80001f44>
  16:	4952                	lw	s2,20(sp)
  18:	562d4353          	0x562d4353
  1c:	4520                	lw	s0,72(a0)
  1e:	626d                	lui	tp,0x1b
  20:	6465                	lui	s0,0x19
  22:	6564                	flw	fs1,76(a0)
  24:	2064                	fld	fs1,192(s0)
  26:	2c434347          	0x2c434347
  2a:	3620                	fld	fs0,104(a2)
  2c:	2d34                	fld	fa3,88(a0)
  2e:	6962                	flw	fs2,24(sp)
  30:	2974                	fld	fa3,208(a0)
  32:	3820                	fld	fs0,112(s0)
  34:	322e                	fld	ft4,232(sp)
  36:	302e                	fld	ft0,232(sp)
	...
