
riscv.elf:     file format elf32-littleriscv


Disassembly of section .text:

80002000 <_jump>:
80002000:	fb010113          	addi	sp,sp,-80
80002004:	04112623          	sw	ra,76(sp)
80002008:	04812423          	sw	s0,72(sp)
8000200c:	04912223          	sw	s1,68(sp)
80002010:	05212023          	sw	s2,64(sp)
80002014:	03312e23          	sw	s3,60(sp)
80002018:	05010413          	addi	s0,sp,80
8000201c:	fc042e23          	sw	zero,-36(s0)
80002020:	0dc0006f          	j	800020fc <_jump+0xfc>
80002024:	fdc42603          	lw	a2,-36(s0)
80002028:	3e800593          	li	a1,1000
8000202c:	8000b7b7          	lui	a5,0x8000b
80002030:	a2c78513          	addi	a0,a5,-1492 # 8000aa2c <arr1>
80002034:	00001097          	auipc	ra,0x1
80002038:	358080e7          	jalr	856(ra) # 8000338c <init_array>
8000203c:	fc042c23          	sw	zero,-40(s0)
80002040:	0400006f          	j	80002080 <_jump+0x80>
80002044:	8000b7b7          	lui	a5,0x8000b
80002048:	a2c78713          	addi	a4,a5,-1492 # 8000aa2c <arr1>
8000204c:	fd842783          	lw	a5,-40(s0)
80002050:	00279793          	slli	a5,a5,0x2
80002054:	00f707b3          	add	a5,a4,a5
80002058:	0007a703          	lw	a4,0(a5)
8000205c:	8000c7b7          	lui	a5,0x8000c
80002060:	9cc78693          	addi	a3,a5,-1588 # 8000b9cc <arr2>
80002064:	fd842783          	lw	a5,-40(s0)
80002068:	00279793          	slli	a5,a5,0x2
8000206c:	00f687b3          	add	a5,a3,a5
80002070:	00e7a023          	sw	a4,0(a5)
80002074:	fd842783          	lw	a5,-40(s0)
80002078:	00178793          	addi	a5,a5,1
8000207c:	fcf42c23          	sw	a5,-40(s0)
80002080:	fd842703          	lw	a4,-40(s0)
80002084:	3e700793          	li	a5,999
80002088:	fae7dee3          	bge	a5,a4,80002044 <_jump+0x44>
8000208c:	3e800593          	li	a1,1000
80002090:	8000b7b7          	lui	a5,0x8000b
80002094:	a2c78513          	addi	a0,a5,-1492 # 8000aa2c <arr1>
80002098:	00001097          	auipc	ra,0x1
8000209c:	05c080e7          	jalr	92(ra) # 800030f4 <sort_insertion>
800020a0:	3e800593          	li	a1,1000
800020a4:	8000c7b7          	lui	a5,0x8000c
800020a8:	9cc78513          	addi	a0,a5,-1588 # 8000b9cc <arr2>
800020ac:	00001097          	auipc	ra,0x1
800020b0:	13c080e7          	jalr	316(ra) # 800031e8 <sort_selection>
800020b4:	3e800613          	li	a2,1000
800020b8:	8000c7b7          	lui	a5,0x8000c
800020bc:	9cc78593          	addi	a1,a5,-1588 # 8000b9cc <arr2>
800020c0:	8000b7b7          	lui	a5,0x8000b
800020c4:	a2c78513          	addi	a0,a5,-1492 # 8000aa2c <arr1>
800020c8:	00001097          	auipc	ra,0x1
800020cc:	23c080e7          	jalr	572(ra) # 80003304 <array_equal>
800020d0:	00050793          	mv	a5,a0
800020d4:	00079e63          	bnez	a5,800020f0 <_jump+0xf0>
800020d8:	800017b7          	lui	a5,0x80001
800020dc:	0087a783          	lw	a5,8(a5) # 80001008 <_jump-0xff8>
800020e0:	80004737          	lui	a4,0x80004
800020e4:	83c70513          	addi	a0,a4,-1988 # 8000383c <__data_lma>
800020e8:	000780e7          	jalr	a5
800020ec:	2dc0006f          	j	800023c8 <_jump+0x3c8>
800020f0:	fdc42783          	lw	a5,-36(s0)
800020f4:	00178793          	addi	a5,a5,1
800020f8:	fcf42e23          	sw	a5,-36(s0)
800020fc:	fdc42703          	lw	a4,-36(s0)
80002100:	00400793          	li	a5,4
80002104:	f2e7d0e3          	bge	a5,a4,80002024 <_jump+0x24>
80002108:	00001097          	auipc	ra,0x1
8000210c:	e80080e7          	jalr	-384(ra) # 80002f88 <validate_prime_calculation>
80002110:	00050793          	mv	a5,a0
80002114:	00079e63          	bnez	a5,80002130 <_jump+0x130>
80002118:	800017b7          	lui	a5,0x80001
8000211c:	0087a783          	lw	a5,8(a5) # 80001008 <_jump-0xff8>
80002120:	80004737          	lui	a4,0x80004
80002124:	85470513          	addi	a0,a4,-1964 # 80003854 <__data_lma+0x18>
80002128:	000780e7          	jalr	a5
8000212c:	29c0006f          	j	800023c8 <_jump+0x3c8>
80002130:	00000097          	auipc	ra,0x0
80002134:	430080e7          	jalr	1072(ra) # 80002560 <run_crc_test>
80002138:	00050793          	mv	a5,a0
8000213c:	00079e63          	bnez	a5,80002158 <_jump+0x158>
80002140:	800017b7          	lui	a5,0x80001
80002144:	0087a783          	lw	a5,8(a5) # 80001008 <_jump-0xff8>
80002148:	80004737          	lui	a4,0x80004
8000214c:	86c70513          	addi	a0,a4,-1940 # 8000386c <__data_lma+0x30>
80002150:	000780e7          	jalr	a5
80002154:	2740006f          	j	800023c8 <_jump+0x3c8>
80002158:	fc042a23          	sw	zero,-44(s0)
8000215c:	0b80006f          	j	80002214 <_jump+0x214>
80002160:	fd442583          	lw	a1,-44(s0)
80002164:	800077b7          	lui	a5,0x80007
80002168:	1ec78513          	addi	a0,a5,492 # 800071ec <A>
8000216c:	00001097          	auipc	ra,0x1
80002170:	cc4080e7          	jalr	-828(ra) # 80002e30 <init_matrix>
80002174:	fd442783          	lw	a5,-44(s0)
80002178:	00179793          	slli	a5,a5,0x1
8000217c:	00078593          	mv	a1,a5
80002180:	800087b7          	lui	a5,0x80008
80002184:	ffc78513          	addi	a0,a5,-4 # 80007ffc <B>
80002188:	00001097          	auipc	ra,0x1
8000218c:	ca8080e7          	jalr	-856(ra) # 80002e30 <init_matrix>
80002190:	800097b7          	lui	a5,0x80009
80002194:	e0c78613          	addi	a2,a5,-500 # 80008e0c <C1>
80002198:	800087b7          	lui	a5,0x80008
8000219c:	ffc78593          	addi	a1,a5,-4 # 80007ffc <B>
800021a0:	800077b7          	lui	a5,0x80007
800021a4:	1ec78513          	addi	a0,a5,492 # 800071ec <A>
800021a8:	00001097          	auipc	ra,0x1
800021ac:	83c080e7          	jalr	-1988(ra) # 800029e4 <matmul_naive>
800021b0:	8000a7b7          	lui	a5,0x8000a
800021b4:	c1c78613          	addi	a2,a5,-996 # 80009c1c <C2>
800021b8:	800087b7          	lui	a5,0x80008
800021bc:	ffc78593          	addi	a1,a5,-4 # 80007ffc <B>
800021c0:	800077b7          	lui	a5,0x80007
800021c4:	1ec78513          	addi	a0,a5,492 # 800071ec <A>
800021c8:	00001097          	auipc	ra,0x1
800021cc:	958080e7          	jalr	-1704(ra) # 80002b20 <matmul_transpose>
800021d0:	8000a7b7          	lui	a5,0x8000a
800021d4:	c1c78593          	addi	a1,a5,-996 # 80009c1c <C2>
800021d8:	800097b7          	lui	a5,0x80009
800021dc:	e0c78513          	addi	a0,a5,-500 # 80008e0c <C1>
800021e0:	00001097          	auipc	ra,0x1
800021e4:	b74080e7          	jalr	-1164(ra) # 80002d54 <verify>
800021e8:	00050793          	mv	a5,a0
800021ec:	00079e63          	bnez	a5,80002208 <_jump+0x208>
800021f0:	800017b7          	lui	a5,0x80001
800021f4:	0087a783          	lw	a5,8(a5) # 80001008 <_jump-0xff8>
800021f8:	80004737          	lui	a4,0x80004
800021fc:	88470513          	addi	a0,a4,-1916 # 80003884 <__data_lma+0x48>
80002200:	000780e7          	jalr	a5
80002204:	1c40006f          	j	800023c8 <_jump+0x3c8>
80002208:	fd442783          	lw	a5,-44(s0)
8000220c:	00178793          	addi	a5,a5,1
80002210:	fcf42a23          	sw	a5,-44(s0)
80002214:	fd442703          	lw	a4,-44(s0)
80002218:	00400793          	li	a5,4
8000221c:	f4e7d2e3          	bge	a5,a4,80002160 <_jump+0x160>
80002220:	00000097          	auipc	ra,0x0
80002224:	610080e7          	jalr	1552(ra) # 80002830 <run_fsm_test>
80002228:	00050793          	mv	a5,a0
8000222c:	00079e63          	bnez	a5,80002248 <_jump+0x248>
80002230:	800017b7          	lui	a5,0x80001
80002234:	0087a783          	lw	a5,8(a5) # 80001008 <_jump-0xff8>
80002238:	80004737          	lui	a4,0x80004
8000223c:	89c70513          	addi	a0,a4,-1892 # 8000389c <__data_lma+0x60>
80002240:	000780e7          	jalr	a5
80002244:	1840006f          	j	800023c8 <_jump+0x3c8>
80002248:	800017b7          	lui	a5,0x80001
8000224c:	0087a783          	lw	a5,8(a5) # 80001008 <_jump-0xff8>
80002250:	80004737          	lui	a4,0x80004
80002254:	8b470513          	addi	a0,a4,-1868 # 800038b4 <__data_lma+0x78>
80002258:	000780e7          	jalr	a5
8000225c:	800017b7          	lui	a5,0x80001
80002260:	0007a783          	lw	a5,0(a5) # 80001000 <_jump-0x1000>
80002264:	000780e7          	jalr	a5
80002268:	fca42423          	sw	a0,-56(s0)
8000226c:	fcb42623          	sw	a1,-52(s0)
80002270:	800017b7          	lui	a5,0x80001
80002274:	0087a783          	lw	a5,8(a5) # 80001008 <_jump-0xff8>
80002278:	fc842603          	lw	a2,-56(s0)
8000227c:	fcc42683          	lw	a3,-52(s0)
80002280:	80004737          	lui	a4,0x80004
80002284:	8cc70513          	addi	a0,a4,-1844 # 800038cc <__data_lma+0x90>
80002288:	000780e7          	jalr	a5
8000228c:	fc042823          	sw	zero,-48(s0)
80002290:	0280006f          	j	800022b8 <_jump+0x2b8>
80002294:	800017b7          	lui	a5,0x80001
80002298:	0087a783          	lw	a5,8(a5) # 80001008 <_jump-0xff8>
8000229c:	fd042583          	lw	a1,-48(s0)
800022a0:	80004737          	lui	a4,0x80004
800022a4:	8d870513          	addi	a0,a4,-1832 # 800038d8 <__data_lma+0x9c>
800022a8:	000780e7          	jalr	a5
800022ac:	fd042783          	lw	a5,-48(s0)
800022b0:	00178793          	addi	a5,a5,1
800022b4:	fcf42823          	sw	a5,-48(s0)
800022b8:	fd042703          	lw	a4,-48(s0)
800022bc:	00900793          	li	a5,9
800022c0:	fce7dae3          	bge	a5,a4,80002294 <_jump+0x294>
800022c4:	800017b7          	lui	a5,0x80001
800022c8:	0007a783          	lw	a5,0(a5) # 80001000 <_jump-0x1000>
800022cc:	000780e7          	jalr	a5
800022d0:	fca42023          	sw	a0,-64(s0)
800022d4:	fcb42223          	sw	a1,-60(s0)
800022d8:	800017b7          	lui	a5,0x80001
800022dc:	0047a783          	lw	a5,4(a5) # 80001004 <_jump-0xffc>
800022e0:	000780e7          	jalr	a5
800022e4:	faa42e23          	sw	a0,-68(s0)
800022e8:	800017b7          	lui	a5,0x80001
800022ec:	0087a783          	lw	a5,8(a5) # 80001008 <_jump-0xff8>
800022f0:	fc042603          	lw	a2,-64(s0)
800022f4:	fc442683          	lw	a3,-60(s0)
800022f8:	80004737          	lui	a4,0x80004
800022fc:	8cc70513          	addi	a0,a4,-1844 # 800038cc <__data_lma+0x90>
80002300:	000780e7          	jalr	a5
80002304:	800017b7          	lui	a5,0x80001
80002308:	0087a803          	lw	a6,8(a5) # 80001008 <_jump-0xff8>
8000230c:	fc042703          	lw	a4,-64(s0)
80002310:	fc442783          	lw	a5,-60(s0)
80002314:	fc842503          	lw	a0,-56(s0)
80002318:	fcc42583          	lw	a1,-52(s0)
8000231c:	40a70633          	sub	a2,a4,a0
80002320:	00060893          	mv	a7,a2
80002324:	011738b3          	sltu	a7,a4,a7
80002328:	40b786b3          	sub	a3,a5,a1
8000232c:	411687b3          	sub	a5,a3,a7
80002330:	00078693          	mv	a3,a5
80002334:	00060713          	mv	a4,a2
80002338:	00068793          	mv	a5,a3
8000233c:	00070613          	mv	a2,a4
80002340:	00078693          	mv	a3,a5
80002344:	800047b7          	lui	a5,0x80004
80002348:	8cc78513          	addi	a0,a5,-1844 # 800038cc <__data_lma+0x90>
8000234c:	000800e7          	jalr	a6
80002350:	800017b7          	lui	a5,0x80001
80002354:	0087a483          	lw	s1,8(a5) # 80001008 <_jump-0xff8>
80002358:	fc042703          	lw	a4,-64(s0)
8000235c:	fc442783          	lw	a5,-60(s0)
80002360:	fc842503          	lw	a0,-56(s0)
80002364:	fcc42583          	lw	a1,-52(s0)
80002368:	40a70633          	sub	a2,a4,a0
8000236c:	00060813          	mv	a6,a2
80002370:	01073833          	sltu	a6,a4,a6
80002374:	40b786b3          	sub	a3,a5,a1
80002378:	410687b3          	sub	a5,a3,a6
8000237c:	00078693          	mv	a3,a5
80002380:	00060713          	mv	a4,a2
80002384:	00068793          	mv	a5,a3
80002388:	fbc42683          	lw	a3,-68(s0)
8000238c:	00068913          	mv	s2,a3
80002390:	00000993          	li	s3,0
80002394:	00090613          	mv	a2,s2
80002398:	00098693          	mv	a3,s3
8000239c:	00070513          	mv	a0,a4
800023a0:	00078593          	mv	a1,a5
800023a4:	00001097          	auipc	ra,0x1
800023a8:	0ac080e7          	jalr	172(ra) # 80003450 <__udivdi3>
800023ac:	00050713          	mv	a4,a0
800023b0:	00058793          	mv	a5,a1
800023b4:	00070613          	mv	a2,a4
800023b8:	00078693          	mv	a3,a5
800023bc:	800047b7          	lui	a5,0x80004
800023c0:	8e878513          	addi	a0,a5,-1816 # 800038e8 <__data_lma+0xac>
800023c4:	000480e7          	jalr	s1
800023c8:	04c12083          	lw	ra,76(sp)
800023cc:	04812403          	lw	s0,72(sp)
800023d0:	04412483          	lw	s1,68(sp)
800023d4:	04012903          	lw	s2,64(sp)
800023d8:	03c12983          	lw	s3,60(sp)
800023dc:	05010113          	addi	sp,sp,80
800023e0:	00008067          	ret

800023e4 <crc16_modbus>:
800023e4:	fd010113          	addi	sp,sp,-48
800023e8:	02112623          	sw	ra,44(sp)
800023ec:	02812423          	sw	s0,40(sp)
800023f0:	03010413          	addi	s0,sp,48
800023f4:	fca42e23          	sw	a0,-36(s0)
800023f8:	fcb42c23          	sw	a1,-40(s0)
800023fc:	fff00793          	li	a5,-1
80002400:	fef41723          	sh	a5,-18(s0)
80002404:	fe042423          	sw	zero,-24(s0)
80002408:	08c0006f          	j	80002494 <crc16_modbus+0xb0>
8000240c:	fe842783          	lw	a5,-24(s0)
80002410:	fdc42703          	lw	a4,-36(s0)
80002414:	00f707b3          	add	a5,a4,a5
80002418:	0007c783          	lbu	a5,0(a5)
8000241c:	00078713          	mv	a4,a5
80002420:	fee45783          	lhu	a5,-18(s0)
80002424:	00f747b3          	xor	a5,a4,a5
80002428:	fef41723          	sh	a5,-18(s0)
8000242c:	fe042223          	sw	zero,-28(s0)
80002430:	04c0006f          	j	8000247c <crc16_modbus+0x98>
80002434:	fee45783          	lhu	a5,-18(s0)
80002438:	0017f793          	andi	a5,a5,1
8000243c:	02078463          	beqz	a5,80002464 <crc16_modbus+0x80>
80002440:	fee45783          	lhu	a5,-18(s0)
80002444:	0017d793          	srli	a5,a5,0x1
80002448:	01079713          	slli	a4,a5,0x10
8000244c:	01075713          	srli	a4,a4,0x10
80002450:	ffffa7b7          	lui	a5,0xffffa
80002454:	00178793          	addi	a5,a5,1 # ffffa001 <__stack_top+0x7ffea001>
80002458:	00f747b3          	xor	a5,a4,a5
8000245c:	fef41723          	sh	a5,-18(s0)
80002460:	0100006f          	j	80002470 <crc16_modbus+0x8c>
80002464:	fee45783          	lhu	a5,-18(s0)
80002468:	0017d793          	srli	a5,a5,0x1
8000246c:	fef41723          	sh	a5,-18(s0)
80002470:	fe442783          	lw	a5,-28(s0)
80002474:	00178793          	addi	a5,a5,1
80002478:	fef42223          	sw	a5,-28(s0)
8000247c:	fe442703          	lw	a4,-28(s0)
80002480:	00700793          	li	a5,7
80002484:	fae7d8e3          	bge	a5,a4,80002434 <crc16_modbus+0x50>
80002488:	fe842783          	lw	a5,-24(s0)
8000248c:	00178793          	addi	a5,a5,1
80002490:	fef42423          	sw	a5,-24(s0)
80002494:	fe842703          	lw	a4,-24(s0)
80002498:	fd842783          	lw	a5,-40(s0)
8000249c:	f6f748e3          	blt	a4,a5,8000240c <crc16_modbus+0x28>
800024a0:	fee45783          	lhu	a5,-18(s0)
800024a4:	00078513          	mv	a0,a5
800024a8:	02c12083          	lw	ra,44(sp)
800024ac:	02812403          	lw	s0,40(sp)
800024b0:	03010113          	addi	sp,sp,48
800024b4:	00008067          	ret

800024b8 <init_crc_buffer>:
800024b8:	fd010113          	addi	sp,sp,-48
800024bc:	02112623          	sw	ra,44(sp)
800024c0:	02812423          	sw	s0,40(sp)
800024c4:	03010413          	addi	s0,sp,48
800024c8:	fca42e23          	sw	a0,-36(s0)
800024cc:	fe042623          	sw	zero,-20(s0)
800024d0:	06c0006f          	j	8000253c <init_crc_buffer+0x84>
800024d4:	fec42703          	lw	a4,-20(s0)
800024d8:	00070793          	mv	a5,a4
800024dc:	00479793          	slli	a5,a5,0x4
800024e0:	00e786b3          	add	a3,a5,a4
800024e4:	fdc42703          	lw	a4,-36(s0)
800024e8:	00070793          	mv	a5,a4
800024ec:	00179793          	slli	a5,a5,0x1
800024f0:	00e787b3          	add	a5,a5,a4
800024f4:	00379793          	slli	a5,a5,0x3
800024f8:	40e787b3          	sub	a5,a5,a4
800024fc:	00f687b3          	add	a5,a3,a5
80002500:	01d78713          	addi	a4,a5,29
80002504:	41f75793          	srai	a5,a4,0x1f
80002508:	0187d793          	srli	a5,a5,0x18
8000250c:	00f70733          	add	a4,a4,a5
80002510:	0ff77713          	zext.b	a4,a4
80002514:	40f707b3          	sub	a5,a4,a5
80002518:	0ff7f713          	zext.b	a4,a5
8000251c:	800047b7          	lui	a5,0x80004
80002520:	9f878693          	addi	a3,a5,-1544 # 800039f8 <crc_buffer>
80002524:	fec42783          	lw	a5,-20(s0)
80002528:	00f687b3          	add	a5,a3,a5
8000252c:	00e78023          	sb	a4,0(a5)
80002530:	fec42783          	lw	a5,-20(s0)
80002534:	00178793          	addi	a5,a5,1
80002538:	fef42623          	sw	a5,-20(s0)
8000253c:	fec42703          	lw	a4,-20(s0)
80002540:	7ff00793          	li	a5,2047
80002544:	f8e7d8e3          	bge	a5,a4,800024d4 <init_crc_buffer+0x1c>
80002548:	00000013          	nop
8000254c:	00000013          	nop
80002550:	02c12083          	lw	ra,44(sp)
80002554:	02812403          	lw	s0,40(sp)
80002558:	03010113          	addi	sp,sp,48
8000255c:	00008067          	ret

80002560 <run_crc_test>:
80002560:	fe010113          	addi	sp,sp,-32
80002564:	00112e23          	sw	ra,28(sp)
80002568:	00812c23          	sw	s0,24(sp)
8000256c:	02010413          	addi	s0,sp,32
80002570:	fe042623          	sw	zero,-20(s0)
80002574:	14c0006f          	j	800026c0 <run_crc_test+0x160>
80002578:	fec42503          	lw	a0,-20(s0)
8000257c:	00000097          	auipc	ra,0x0
80002580:	f3c080e7          	jalr	-196(ra) # 800024b8 <init_crc_buffer>
80002584:	000017b7          	lui	a5,0x1
80002588:	80078593          	addi	a1,a5,-2048 # 800 <_jump-0x80001800>
8000258c:	800047b7          	lui	a5,0x80004
80002590:	9f878513          	addi	a0,a5,-1544 # 800039f8 <crc_buffer>
80002594:	00000097          	auipc	ra,0x0
80002598:	e50080e7          	jalr	-432(ra) # 800023e4 <crc16_modbus>
8000259c:	00050793          	mv	a5,a0
800025a0:	fef41523          	sh	a5,-22(s0)
800025a4:	fec42703          	lw	a4,-20(s0)
800025a8:	00070793          	mv	a5,a4
800025ac:	00579793          	slli	a5,a5,0x5
800025b0:	40e787b3          	sub	a5,a5,a4
800025b4:	00279793          	slli	a5,a5,0x2
800025b8:	40e78733          	sub	a4,a5,a4
800025bc:	41f75793          	srai	a5,a4,0x1f
800025c0:	0157d793          	srli	a5,a5,0x15
800025c4:	00f70733          	add	a4,a4,a5
800025c8:	7ff77713          	andi	a4,a4,2047
800025cc:	40f707b3          	sub	a5,a4,a5
800025d0:	80004737          	lui	a4,0x80004
800025d4:	9f870713          	addi	a4,a4,-1544 # 800039f8 <crc_buffer>
800025d8:	00f70733          	add	a4,a4,a5
800025dc:	00074703          	lbu	a4,0(a4)
800025e0:	05a74713          	xori	a4,a4,90
800025e4:	0ff77713          	zext.b	a4,a4
800025e8:	800046b7          	lui	a3,0x80004
800025ec:	9f868693          	addi	a3,a3,-1544 # 800039f8 <crc_buffer>
800025f0:	00f687b3          	add	a5,a3,a5
800025f4:	00e78023          	sb	a4,0(a5)
800025f8:	000017b7          	lui	a5,0x1
800025fc:	80078593          	addi	a1,a5,-2048 # 800 <_jump-0x80001800>
80002600:	800047b7          	lui	a5,0x80004
80002604:	9f878513          	addi	a0,a5,-1544 # 800039f8 <crc_buffer>
80002608:	00000097          	auipc	ra,0x0
8000260c:	ddc080e7          	jalr	-548(ra) # 800023e4 <crc16_modbus>
80002610:	00050793          	mv	a5,a0
80002614:	fef41423          	sh	a5,-24(s0)
80002618:	fec42703          	lw	a4,-20(s0)
8000261c:	00070793          	mv	a5,a4
80002620:	00579793          	slli	a5,a5,0x5
80002624:	40e787b3          	sub	a5,a5,a4
80002628:	00279793          	slli	a5,a5,0x2
8000262c:	40e78733          	sub	a4,a5,a4
80002630:	41f75793          	srai	a5,a4,0x1f
80002634:	0157d793          	srli	a5,a5,0x15
80002638:	00f70733          	add	a4,a4,a5
8000263c:	7ff77713          	andi	a4,a4,2047
80002640:	40f707b3          	sub	a5,a4,a5
80002644:	80004737          	lui	a4,0x80004
80002648:	9f870713          	addi	a4,a4,-1544 # 800039f8 <crc_buffer>
8000264c:	00f70733          	add	a4,a4,a5
80002650:	00074703          	lbu	a4,0(a4)
80002654:	05a74713          	xori	a4,a4,90
80002658:	0ff77713          	zext.b	a4,a4
8000265c:	800046b7          	lui	a3,0x80004
80002660:	9f868693          	addi	a3,a3,-1544 # 800039f8 <crc_buffer>
80002664:	00f687b3          	add	a5,a3,a5
80002668:	00e78023          	sb	a4,0(a5)
8000266c:	000017b7          	lui	a5,0x1
80002670:	80078593          	addi	a1,a5,-2048 # 800 <_jump-0x80001800>
80002674:	800047b7          	lui	a5,0x80004
80002678:	9f878513          	addi	a0,a5,-1544 # 800039f8 <crc_buffer>
8000267c:	00000097          	auipc	ra,0x0
80002680:	d68080e7          	jalr	-664(ra) # 800023e4 <crc16_modbus>
80002684:	00050793          	mv	a5,a0
80002688:	fef41323          	sh	a5,-26(s0)
8000268c:	fea45703          	lhu	a4,-22(s0)
80002690:	fe845783          	lhu	a5,-24(s0)
80002694:	00f71663          	bne	a4,a5,800026a0 <run_crc_test+0x140>
80002698:	00000793          	li	a5,0
8000269c:	0340006f          	j	800026d0 <run_crc_test+0x170>
800026a0:	fe645703          	lhu	a4,-26(s0)
800026a4:	fea45783          	lhu	a5,-22(s0)
800026a8:	00f70663          	beq	a4,a5,800026b4 <run_crc_test+0x154>
800026ac:	00000793          	li	a5,0
800026b0:	0200006f          	j	800026d0 <run_crc_test+0x170>
800026b4:	fec42783          	lw	a5,-20(s0)
800026b8:	00178793          	addi	a5,a5,1
800026bc:	fef42623          	sw	a5,-20(s0)
800026c0:	fec42703          	lw	a4,-20(s0)
800026c4:	12b00793          	li	a5,299
800026c8:	eae7d8e3          	bge	a5,a4,80002578 <run_crc_test+0x18>
800026cc:	00100793          	li	a5,1
800026d0:	00078513          	mv	a0,a5
800026d4:	01c12083          	lw	ra,28(sp)
800026d8:	01812403          	lw	s0,24(sp)
800026dc:	02010113          	addi	sp,sp,32
800026e0:	00008067          	ret

800026e4 <fsm_transition>:
800026e4:	fe010113          	addi	sp,sp,-32
800026e8:	00112e23          	sw	ra,28(sp)
800026ec:	00812c23          	sw	s0,24(sp)
800026f0:	02010413          	addi	s0,sp,32
800026f4:	fea42623          	sw	a0,-20(s0)
800026f8:	feb42423          	sw	a1,-24(s0)
800026fc:	fec42703          	lw	a4,-20(s0)
80002700:	00300793          	li	a5,3
80002704:	0cf70c63          	beq	a4,a5,800027dc <fsm_transition+0xf8>
80002708:	fec42703          	lw	a4,-20(s0)
8000270c:	00300793          	li	a5,3
80002710:	10e7e463          	bltu	a5,a4,80002818 <fsm_transition+0x134>
80002714:	fec42703          	lw	a4,-20(s0)
80002718:	00200793          	li	a5,2
8000271c:	08f70063          	beq	a4,a5,8000279c <fsm_transition+0xb8>
80002720:	fec42703          	lw	a4,-20(s0)
80002724:	00200793          	li	a5,2
80002728:	0ee7e863          	bltu	a5,a4,80002818 <fsm_transition+0x134>
8000272c:	fec42783          	lw	a5,-20(s0)
80002730:	00078a63          	beqz	a5,80002744 <fsm_transition+0x60>
80002734:	fec42703          	lw	a4,-20(s0)
80002738:	00100793          	li	a5,1
8000273c:	02f70263          	beq	a4,a5,80002760 <fsm_transition+0x7c>
80002740:	0d80006f          	j	80002818 <fsm_transition+0x134>
80002744:	fe842783          	lw	a5,-24(s0)
80002748:	0017f793          	andi	a5,a5,1
8000274c:	00079663          	bnez	a5,80002758 <fsm_transition+0x74>
80002750:	00100793          	li	a5,1
80002754:	0c80006f          	j	8000281c <fsm_transition+0x138>
80002758:	00200793          	li	a5,2
8000275c:	0c00006f          	j	8000281c <fsm_transition+0x138>
80002760:	fe842683          	lw	a3,-24(s0)
80002764:	555557b7          	lui	a5,0x55555
80002768:	55678793          	addi	a5,a5,1366 # 55555556 <_jump-0x2aaacaaa>
8000276c:	02f69733          	mulh	a4,a3,a5
80002770:	41f6d793          	srai	a5,a3,0x1f
80002774:	40f70733          	sub	a4,a4,a5
80002778:	00070793          	mv	a5,a4
8000277c:	00179793          	slli	a5,a5,0x1
80002780:	00e787b3          	add	a5,a5,a4
80002784:	40f68733          	sub	a4,a3,a5
80002788:	00071663          	bnez	a4,80002794 <fsm_transition+0xb0>
8000278c:	00200793          	li	a5,2
80002790:	08c0006f          	j	8000281c <fsm_transition+0x138>
80002794:	00300793          	li	a5,3
80002798:	0840006f          	j	8000281c <fsm_transition+0x138>
8000279c:	fe842683          	lw	a3,-24(s0)
800027a0:	666667b7          	lui	a5,0x66666
800027a4:	66778793          	addi	a5,a5,1639 # 66666667 <_jump-0x1999b999>
800027a8:	02f697b3          	mulh	a5,a3,a5
800027ac:	4017d713          	srai	a4,a5,0x1
800027b0:	41f6d793          	srai	a5,a3,0x1f
800027b4:	40f70733          	sub	a4,a4,a5
800027b8:	00070793          	mv	a5,a4
800027bc:	00279793          	slli	a5,a5,0x2
800027c0:	00e787b3          	add	a5,a5,a4
800027c4:	40f68733          	sub	a4,a3,a5
800027c8:	00071663          	bnez	a4,800027d4 <fsm_transition+0xf0>
800027cc:	00300793          	li	a5,3
800027d0:	04c0006f          	j	8000281c <fsm_transition+0x138>
800027d4:	00000793          	li	a5,0
800027d8:	0440006f          	j	8000281c <fsm_transition+0x138>
800027dc:	fe842783          	lw	a5,-24(s0)
800027e0:	92492737          	lui	a4,0x92492
800027e4:	49370713          	addi	a4,a4,1171 # 92492493 <__stack_top+0x12482493>
800027e8:	02e79733          	mulh	a4,a5,a4
800027ec:	00f70733          	add	a4,a4,a5
800027f0:	40275693          	srai	a3,a4,0x2
800027f4:	41f7d713          	srai	a4,a5,0x1f
800027f8:	40e686b3          	sub	a3,a3,a4
800027fc:	00068713          	mv	a4,a3
80002800:	00371713          	slli	a4,a4,0x3
80002804:	40d70733          	sub	a4,a4,a3
80002808:	40e786b3          	sub	a3,a5,a4
8000280c:	00d037b3          	snez	a5,a3
80002810:	0ff7f793          	zext.b	a5,a5
80002814:	0080006f          	j	8000281c <fsm_transition+0x138>
80002818:	00000793          	li	a5,0
8000281c:	00078513          	mv	a0,a5
80002820:	01c12083          	lw	ra,28(sp)
80002824:	01812403          	lw	s0,24(sp)
80002828:	02010113          	addi	sp,sp,32
8000282c:	00008067          	ret

80002830 <run_fsm_test>:
80002830:	fc010113          	addi	sp,sp,-64
80002834:	02112e23          	sw	ra,60(sp)
80002838:	02812c23          	sw	s0,56(sp)
8000283c:	04010413          	addi	s0,sp,64
80002840:	fe042623          	sw	zero,-20(s0)
80002844:	fe042423          	sw	zero,-24(s0)
80002848:	fe042223          	sw	zero,-28(s0)
8000284c:	0980006f          	j	800028e4 <run_fsm_test+0xb4>
80002850:	fe042023          	sw	zero,-32(s0)
80002854:	0780006f          	j	800028cc <run_fsm_test+0x9c>
80002858:	fec42783          	lw	a5,-20(s0)
8000285c:	0ff7f713          	zext.b	a4,a5
80002860:	800047b7          	lui	a5,0x80004
80002864:	1f878693          	addi	a3,a5,504 # 800041f8 <trace>
80002868:	fe042783          	lw	a5,-32(s0)
8000286c:	00f687b3          	add	a5,a3,a5
80002870:	00e78023          	sb	a4,0(a5)
80002874:	fe042703          	lw	a4,-32(s0)
80002878:	00070793          	mv	a5,a4
8000287c:	00479793          	slli	a5,a5,0x4
80002880:	00e787b3          	add	a5,a5,a4
80002884:	01778793          	addi	a5,a5,23
80002888:	00078593          	mv	a1,a5
8000288c:	fec42503          	lw	a0,-20(s0)
80002890:	00000097          	auipc	ra,0x0
80002894:	e54080e7          	jalr	-428(ra) # 800026e4 <fsm_transition>
80002898:	00050793          	mv	a5,a0
8000289c:	fef42623          	sw	a5,-20(s0)
800028a0:	fe042783          	lw	a5,-32(s0)
800028a4:	00178793          	addi	a5,a5,1
800028a8:	00078713          	mv	a4,a5
800028ac:	fec42783          	lw	a5,-20(s0)
800028b0:	02f70733          	mul	a4,a4,a5
800028b4:	fe842783          	lw	a5,-24(s0)
800028b8:	00f707b3          	add	a5,a4,a5
800028bc:	fef42423          	sw	a5,-24(s0)
800028c0:	fe042783          	lw	a5,-32(s0)
800028c4:	00178793          	addi	a5,a5,1
800028c8:	fef42023          	sw	a5,-32(s0)
800028cc:	fe042703          	lw	a4,-32(s0)
800028d0:	0ff00793          	li	a5,255
800028d4:	f8e7d2e3          	bge	a5,a4,80002858 <run_fsm_test+0x28>
800028d8:	fe442783          	lw	a5,-28(s0)
800028dc:	00178793          	addi	a5,a5,1
800028e0:	fef42223          	sw	a5,-28(s0)
800028e4:	fe442703          	lw	a4,-28(s0)
800028e8:	000017b7          	lui	a5,0x1
800028ec:	38778793          	addi	a5,a5,903 # 1387 <_jump-0x80000c79>
800028f0:	f6e7d0e3          	bge	a5,a4,80002850 <run_fsm_test+0x20>
800028f4:	0f7d47b7          	lui	a5,0xf7d4
800028f8:	9a978793          	addi	a5,a5,-1623 # f7d39a9 <_jump-0x7082e657>
800028fc:	fcf42623          	sw	a5,-52(s0)
80002900:	fe842703          	lw	a4,-24(s0)
80002904:	fcc42783          	lw	a5,-52(s0)
80002908:	00f70663          	beq	a4,a5,80002914 <run_fsm_test+0xe4>
8000290c:	00000793          	li	a5,0
80002910:	0c00006f          	j	800029d0 <run_fsm_test+0x1a0>
80002914:	00100793          	li	a5,1
80002918:	fcf42e23          	sw	a5,-36(s0)
8000291c:	fc042c23          	sw	zero,-40(s0)
80002920:	fc042a23          	sw	zero,-44(s0)
80002924:	0840006f          	j	800029a8 <run_fsm_test+0x178>
80002928:	fc042823          	sw	zero,-48(s0)
8000292c:	0640006f          	j	80002990 <run_fsm_test+0x160>
80002930:	fd042703          	lw	a4,-48(s0)
80002934:	00070793          	mv	a5,a4
80002938:	00279793          	slli	a5,a5,0x2
8000293c:	00e787b3          	add	a5,a5,a4
80002940:	00279793          	slli	a5,a5,0x2
80002944:	40e787b3          	sub	a5,a5,a4
80002948:	01f78793          	addi	a5,a5,31
8000294c:	00078593          	mv	a1,a5
80002950:	fdc42503          	lw	a0,-36(s0)
80002954:	00000097          	auipc	ra,0x0
80002958:	d90080e7          	jalr	-624(ra) # 800026e4 <fsm_transition>
8000295c:	00050793          	mv	a5,a0
80002960:	fcf42e23          	sw	a5,-36(s0)
80002964:	fd042783          	lw	a5,-48(s0)
80002968:	00178793          	addi	a5,a5,1
8000296c:	00078713          	mv	a4,a5
80002970:	fdc42783          	lw	a5,-36(s0)
80002974:	02f70733          	mul	a4,a4,a5
80002978:	fd842783          	lw	a5,-40(s0)
8000297c:	00f707b3          	add	a5,a4,a5
80002980:	fcf42c23          	sw	a5,-40(s0)
80002984:	fd042783          	lw	a5,-48(s0)
80002988:	00178793          	addi	a5,a5,1
8000298c:	fcf42823          	sw	a5,-48(s0)
80002990:	fd042703          	lw	a4,-48(s0)
80002994:	0ff00793          	li	a5,255
80002998:	f8e7dce3          	bge	a5,a4,80002930 <run_fsm_test+0x100>
8000299c:	fd442783          	lw	a5,-44(s0)
800029a0:	00178793          	addi	a5,a5,1
800029a4:	fcf42a23          	sw	a5,-44(s0)
800029a8:	fd442703          	lw	a4,-44(s0)
800029ac:	000017b7          	lui	a5,0x1
800029b0:	38778793          	addi	a5,a5,903 # 1387 <_jump-0x80000c79>
800029b4:	f6e7dae3          	bge	a5,a4,80002928 <run_fsm_test+0xf8>
800029b8:	fd842703          	lw	a4,-40(s0)
800029bc:	fcc42783          	lw	a5,-52(s0)
800029c0:	00f71663          	bne	a4,a5,800029cc <run_fsm_test+0x19c>
800029c4:	00000793          	li	a5,0
800029c8:	0080006f          	j	800029d0 <run_fsm_test+0x1a0>
800029cc:	00100793          	li	a5,1
800029d0:	00078513          	mv	a0,a5
800029d4:	03c12083          	lw	ra,60(sp)
800029d8:	03812403          	lw	s0,56(sp)
800029dc:	04010113          	addi	sp,sp,64
800029e0:	00008067          	ret

800029e4 <matmul_naive>:
800029e4:	fd010113          	addi	sp,sp,-48
800029e8:	02112623          	sw	ra,44(sp)
800029ec:	02812423          	sw	s0,40(sp)
800029f0:	03010413          	addi	s0,sp,48
800029f4:	fca42e23          	sw	a0,-36(s0)
800029f8:	fcb42c23          	sw	a1,-40(s0)
800029fc:	fcc42a23          	sw	a2,-44(s0)
80002a00:	fe042623          	sw	zero,-20(s0)
80002a04:	0f80006f          	j	80002afc <matmul_naive+0x118>
80002a08:	fe042423          	sw	zero,-24(s0)
80002a0c:	0d80006f          	j	80002ae4 <matmul_naive+0x100>
80002a10:	fe042023          	sw	zero,-32(s0)
80002a14:	fe042223          	sw	zero,-28(s0)
80002a18:	0800006f          	j	80002a98 <matmul_naive+0xb4>
80002a1c:	fec42703          	lw	a4,-20(s0)
80002a20:	00070793          	mv	a5,a4
80002a24:	00479793          	slli	a5,a5,0x4
80002a28:	40e787b3          	sub	a5,a5,a4
80002a2c:	00379793          	slli	a5,a5,0x3
80002a30:	00078713          	mv	a4,a5
80002a34:	fdc42783          	lw	a5,-36(s0)
80002a38:	00e78733          	add	a4,a5,a4
80002a3c:	fe442783          	lw	a5,-28(s0)
80002a40:	00279793          	slli	a5,a5,0x2
80002a44:	00f707b3          	add	a5,a4,a5
80002a48:	0007a683          	lw	a3,0(a5)
80002a4c:	fe442703          	lw	a4,-28(s0)
80002a50:	00070793          	mv	a5,a4
80002a54:	00479793          	slli	a5,a5,0x4
80002a58:	40e787b3          	sub	a5,a5,a4
80002a5c:	00379793          	slli	a5,a5,0x3
80002a60:	00078713          	mv	a4,a5
80002a64:	fd842783          	lw	a5,-40(s0)
80002a68:	00e78733          	add	a4,a5,a4
80002a6c:	fe842783          	lw	a5,-24(s0)
80002a70:	00279793          	slli	a5,a5,0x2
80002a74:	00f707b3          	add	a5,a4,a5
80002a78:	0007a783          	lw	a5,0(a5)
80002a7c:	02f687b3          	mul	a5,a3,a5
80002a80:	fe042703          	lw	a4,-32(s0)
80002a84:	00f707b3          	add	a5,a4,a5
80002a88:	fef42023          	sw	a5,-32(s0)
80002a8c:	fe442783          	lw	a5,-28(s0)
80002a90:	00178793          	addi	a5,a5,1
80002a94:	fef42223          	sw	a5,-28(s0)
80002a98:	fe442703          	lw	a4,-28(s0)
80002a9c:	01d00793          	li	a5,29
80002aa0:	f6e7dee3          	bge	a5,a4,80002a1c <matmul_naive+0x38>
80002aa4:	fec42703          	lw	a4,-20(s0)
80002aa8:	00070793          	mv	a5,a4
80002aac:	00479793          	slli	a5,a5,0x4
80002ab0:	40e787b3          	sub	a5,a5,a4
80002ab4:	00379793          	slli	a5,a5,0x3
80002ab8:	00078713          	mv	a4,a5
80002abc:	fd442783          	lw	a5,-44(s0)
80002ac0:	00e78733          	add	a4,a5,a4
80002ac4:	fe842783          	lw	a5,-24(s0)
80002ac8:	00279793          	slli	a5,a5,0x2
80002acc:	00f707b3          	add	a5,a4,a5
80002ad0:	fe042703          	lw	a4,-32(s0)
80002ad4:	00e7a023          	sw	a4,0(a5)
80002ad8:	fe842783          	lw	a5,-24(s0)
80002adc:	00178793          	addi	a5,a5,1
80002ae0:	fef42423          	sw	a5,-24(s0)
80002ae4:	fe842703          	lw	a4,-24(s0)
80002ae8:	01d00793          	li	a5,29
80002aec:	f2e7d2e3          	bge	a5,a4,80002a10 <matmul_naive+0x2c>
80002af0:	fec42783          	lw	a5,-20(s0)
80002af4:	00178793          	addi	a5,a5,1
80002af8:	fef42623          	sw	a5,-20(s0)
80002afc:	fec42703          	lw	a4,-20(s0)
80002b00:	01d00793          	li	a5,29
80002b04:	f0e7d2e3          	bge	a5,a4,80002a08 <matmul_naive+0x24>
80002b08:	00000013          	nop
80002b0c:	00000013          	nop
80002b10:	02c12083          	lw	ra,44(sp)
80002b14:	02812403          	lw	s0,40(sp)
80002b18:	03010113          	addi	sp,sp,48
80002b1c:	00008067          	ret

80002b20 <matmul_transpose>:
80002b20:	81010113          	addi	sp,sp,-2032
80002b24:	7e112623          	sw	ra,2028(sp)
80002b28:	7e812423          	sw	s0,2024(sp)
80002b2c:	7f010413          	addi	s0,sp,2032
80002b30:	9b010113          	addi	sp,sp,-1616
80002b34:	fffff7b7          	lui	a5,0xfffff
80002b38:	ff078793          	addi	a5,a5,-16 # ffffeff0 <__stack_top+0x7ffeeff0>
80002b3c:	008787b3          	add	a5,a5,s0
80002b40:	1ca7ae23          	sw	a0,476(a5)
80002b44:	fffff7b7          	lui	a5,0xfffff
80002b48:	ff078793          	addi	a5,a5,-16 # ffffeff0 <__stack_top+0x7ffeeff0>
80002b4c:	008787b3          	add	a5,a5,s0
80002b50:	1cb7ac23          	sw	a1,472(a5)
80002b54:	fffff7b7          	lui	a5,0xfffff
80002b58:	ff078793          	addi	a5,a5,-16 # ffffeff0 <__stack_top+0x7ffeeff0>
80002b5c:	008787b3          	add	a5,a5,s0
80002b60:	1cc7aa23          	sw	a2,468(a5)
80002b64:	fe042623          	sw	zero,-20(s0)
80002b68:	0a00006f          	j	80002c08 <matmul_transpose+0xe8>
80002b6c:	fe042423          	sw	zero,-24(s0)
80002b70:	0800006f          	j	80002bf0 <matmul_transpose+0xd0>
80002b74:	fec42703          	lw	a4,-20(s0)
80002b78:	00070793          	mv	a5,a4
80002b7c:	00479793          	slli	a5,a5,0x4
80002b80:	40e787b3          	sub	a5,a5,a4
80002b84:	00379793          	slli	a5,a5,0x3
80002b88:	00078713          	mv	a4,a5
80002b8c:	fffff7b7          	lui	a5,0xfffff
80002b90:	ff078793          	addi	a5,a5,-16 # ffffeff0 <__stack_top+0x7ffeeff0>
80002b94:	008787b3          	add	a5,a5,s0
80002b98:	1d87a783          	lw	a5,472(a5)
80002b9c:	00e78733          	add	a4,a5,a4
80002ba0:	fe842783          	lw	a5,-24(s0)
80002ba4:	00279793          	slli	a5,a5,0x2
80002ba8:	00f707b3          	add	a5,a4,a5
80002bac:	0007a683          	lw	a3,0(a5)
80002bb0:	fffff7b7          	lui	a5,0xfffff
80002bb4:	ff078793          	addi	a5,a5,-16 # ffffeff0 <__stack_top+0x7ffeeff0>
80002bb8:	00878633          	add	a2,a5,s0
80002bbc:	fe842703          	lw	a4,-24(s0)
80002bc0:	00070793          	mv	a5,a4
80002bc4:	00479793          	slli	a5,a5,0x4
80002bc8:	40e787b3          	sub	a5,a5,a4
80002bcc:	00179793          	slli	a5,a5,0x1
80002bd0:	fec42703          	lw	a4,-20(s0)
80002bd4:	00e787b3          	add	a5,a5,a4
80002bd8:	00279793          	slli	a5,a5,0x2
80002bdc:	00f607b3          	add	a5,a2,a5
80002be0:	1ed7a023          	sw	a3,480(a5)
80002be4:	fe842783          	lw	a5,-24(s0)
80002be8:	00178793          	addi	a5,a5,1
80002bec:	fef42423          	sw	a5,-24(s0)
80002bf0:	fe842703          	lw	a4,-24(s0)
80002bf4:	01d00793          	li	a5,29
80002bf8:	f6e7dee3          	bge	a5,a4,80002b74 <matmul_transpose+0x54>
80002bfc:	fec42783          	lw	a5,-20(s0)
80002c00:	00178793          	addi	a5,a5,1
80002c04:	fef42623          	sw	a5,-20(s0)
80002c08:	fec42703          	lw	a4,-20(s0)
80002c0c:	01d00793          	li	a5,29
80002c10:	f4e7dee3          	bge	a5,a4,80002b6c <matmul_transpose+0x4c>
80002c14:	fe042623          	sw	zero,-20(s0)
80002c18:	1140006f          	j	80002d2c <matmul_transpose+0x20c>
80002c1c:	fe042423          	sw	zero,-24(s0)
80002c20:	0f40006f          	j	80002d14 <matmul_transpose+0x1f4>
80002c24:	fe042023          	sw	zero,-32(s0)
80002c28:	fe042223          	sw	zero,-28(s0)
80002c2c:	0900006f          	j	80002cbc <matmul_transpose+0x19c>
80002c30:	fec42703          	lw	a4,-20(s0)
80002c34:	00070793          	mv	a5,a4
80002c38:	00479793          	slli	a5,a5,0x4
80002c3c:	40e787b3          	sub	a5,a5,a4
80002c40:	00379793          	slli	a5,a5,0x3
80002c44:	00078713          	mv	a4,a5
80002c48:	fffff7b7          	lui	a5,0xfffff
80002c4c:	ff078793          	addi	a5,a5,-16 # ffffeff0 <__stack_top+0x7ffeeff0>
80002c50:	008787b3          	add	a5,a5,s0
80002c54:	1dc7a783          	lw	a5,476(a5)
80002c58:	00e78733          	add	a4,a5,a4
80002c5c:	fe442783          	lw	a5,-28(s0)
80002c60:	00279793          	slli	a5,a5,0x2
80002c64:	00f707b3          	add	a5,a4,a5
80002c68:	0007a683          	lw	a3,0(a5)
80002c6c:	fffff7b7          	lui	a5,0xfffff
80002c70:	ff078793          	addi	a5,a5,-16 # ffffeff0 <__stack_top+0x7ffeeff0>
80002c74:	00878633          	add	a2,a5,s0
80002c78:	fe842703          	lw	a4,-24(s0)
80002c7c:	00070793          	mv	a5,a4
80002c80:	00479793          	slli	a5,a5,0x4
80002c84:	40e787b3          	sub	a5,a5,a4
80002c88:	00179793          	slli	a5,a5,0x1
80002c8c:	fe442703          	lw	a4,-28(s0)
80002c90:	00e787b3          	add	a5,a5,a4
80002c94:	00279793          	slli	a5,a5,0x2
80002c98:	00f607b3          	add	a5,a2,a5
80002c9c:	1e07a783          	lw	a5,480(a5)
80002ca0:	02f687b3          	mul	a5,a3,a5
80002ca4:	fe042703          	lw	a4,-32(s0)
80002ca8:	00f707b3          	add	a5,a4,a5
80002cac:	fef42023          	sw	a5,-32(s0)
80002cb0:	fe442783          	lw	a5,-28(s0)
80002cb4:	00178793          	addi	a5,a5,1
80002cb8:	fef42223          	sw	a5,-28(s0)
80002cbc:	fe442703          	lw	a4,-28(s0)
80002cc0:	01d00793          	li	a5,29
80002cc4:	f6e7d6e3          	bge	a5,a4,80002c30 <matmul_transpose+0x110>
80002cc8:	fec42703          	lw	a4,-20(s0)
80002ccc:	00070793          	mv	a5,a4
80002cd0:	00479793          	slli	a5,a5,0x4
80002cd4:	40e787b3          	sub	a5,a5,a4
80002cd8:	00379793          	slli	a5,a5,0x3
80002cdc:	00078713          	mv	a4,a5
80002ce0:	fffff7b7          	lui	a5,0xfffff
80002ce4:	ff078793          	addi	a5,a5,-16 # ffffeff0 <__stack_top+0x7ffeeff0>
80002ce8:	008787b3          	add	a5,a5,s0
80002cec:	1d47a783          	lw	a5,468(a5)
80002cf0:	00e78733          	add	a4,a5,a4
80002cf4:	fe842783          	lw	a5,-24(s0)
80002cf8:	00279793          	slli	a5,a5,0x2
80002cfc:	00f707b3          	add	a5,a4,a5
80002d00:	fe042703          	lw	a4,-32(s0)
80002d04:	00e7a023          	sw	a4,0(a5)
80002d08:	fe842783          	lw	a5,-24(s0)
80002d0c:	00178793          	addi	a5,a5,1
80002d10:	fef42423          	sw	a5,-24(s0)
80002d14:	fe842703          	lw	a4,-24(s0)
80002d18:	01d00793          	li	a5,29
80002d1c:	f0e7d4e3          	bge	a5,a4,80002c24 <matmul_transpose+0x104>
80002d20:	fec42783          	lw	a5,-20(s0)
80002d24:	00178793          	addi	a5,a5,1
80002d28:	fef42623          	sw	a5,-20(s0)
80002d2c:	fec42703          	lw	a4,-20(s0)
80002d30:	01d00793          	li	a5,29
80002d34:	eee7d4e3          	bge	a5,a4,80002c1c <matmul_transpose+0xfc>
80002d38:	00000013          	nop
80002d3c:	00000013          	nop
80002d40:	65010113          	addi	sp,sp,1616
80002d44:	7ec12083          	lw	ra,2028(sp)
80002d48:	7e812403          	lw	s0,2024(sp)
80002d4c:	7f010113          	addi	sp,sp,2032
80002d50:	00008067          	ret

80002d54 <verify>:
80002d54:	fd010113          	addi	sp,sp,-48
80002d58:	02112623          	sw	ra,44(sp)
80002d5c:	02812423          	sw	s0,40(sp)
80002d60:	03010413          	addi	s0,sp,48
80002d64:	fca42e23          	sw	a0,-36(s0)
80002d68:	fcb42c23          	sw	a1,-40(s0)
80002d6c:	fe042623          	sw	zero,-20(s0)
80002d70:	09c0006f          	j	80002e0c <verify+0xb8>
80002d74:	fe042423          	sw	zero,-24(s0)
80002d78:	07c0006f          	j	80002df4 <verify+0xa0>
80002d7c:	fec42703          	lw	a4,-20(s0)
80002d80:	00070793          	mv	a5,a4
80002d84:	00479793          	slli	a5,a5,0x4
80002d88:	40e787b3          	sub	a5,a5,a4
80002d8c:	00379793          	slli	a5,a5,0x3
80002d90:	00078713          	mv	a4,a5
80002d94:	fdc42783          	lw	a5,-36(s0)
80002d98:	00e78733          	add	a4,a5,a4
80002d9c:	fe842783          	lw	a5,-24(s0)
80002da0:	00279793          	slli	a5,a5,0x2
80002da4:	00f707b3          	add	a5,a4,a5
80002da8:	0007a683          	lw	a3,0(a5)
80002dac:	fec42703          	lw	a4,-20(s0)
80002db0:	00070793          	mv	a5,a4
80002db4:	00479793          	slli	a5,a5,0x4
80002db8:	40e787b3          	sub	a5,a5,a4
80002dbc:	00379793          	slli	a5,a5,0x3
80002dc0:	00078713          	mv	a4,a5
80002dc4:	fd842783          	lw	a5,-40(s0)
80002dc8:	00e78733          	add	a4,a5,a4
80002dcc:	fe842783          	lw	a5,-24(s0)
80002dd0:	00279793          	slli	a5,a5,0x2
80002dd4:	00f707b3          	add	a5,a4,a5
80002dd8:	0007a783          	lw	a5,0(a5)
80002ddc:	00f68663          	beq	a3,a5,80002de8 <verify+0x94>
80002de0:	00000793          	li	a5,0
80002de4:	0380006f          	j	80002e1c <verify+0xc8>
80002de8:	fe842783          	lw	a5,-24(s0)
80002dec:	00178793          	addi	a5,a5,1
80002df0:	fef42423          	sw	a5,-24(s0)
80002df4:	fe842703          	lw	a4,-24(s0)
80002df8:	01d00793          	li	a5,29
80002dfc:	f8e7d0e3          	bge	a5,a4,80002d7c <verify+0x28>
80002e00:	fec42783          	lw	a5,-20(s0)
80002e04:	00178793          	addi	a5,a5,1
80002e08:	fef42623          	sw	a5,-20(s0)
80002e0c:	fec42703          	lw	a4,-20(s0)
80002e10:	01d00793          	li	a5,29
80002e14:	f6e7d0e3          	bge	a5,a4,80002d74 <verify+0x20>
80002e18:	00100793          	li	a5,1
80002e1c:	00078513          	mv	a0,a5
80002e20:	02c12083          	lw	ra,44(sp)
80002e24:	02812403          	lw	s0,40(sp)
80002e28:	03010113          	addi	sp,sp,48
80002e2c:	00008067          	ret

80002e30 <init_matrix>:
80002e30:	fd010113          	addi	sp,sp,-48
80002e34:	02112623          	sw	ra,44(sp)
80002e38:	02812423          	sw	s0,40(sp)
80002e3c:	03010413          	addi	s0,sp,48
80002e40:	fca42e23          	sw	a0,-36(s0)
80002e44:	fcb42c23          	sw	a1,-40(s0)
80002e48:	fe042623          	sw	zero,-20(s0)
80002e4c:	0980006f          	j	80002ee4 <init_matrix+0xb4>
80002e50:	fe042423          	sw	zero,-24(s0)
80002e54:	0780006f          	j	80002ecc <init_matrix+0x9c>
80002e58:	fec42703          	lw	a4,-20(s0)
80002e5c:	fe842783          	lw	a5,-24(s0)
80002e60:	02f70733          	mul	a4,a4,a5
80002e64:	fd842783          	lw	a5,-40(s0)
80002e68:	00f70733          	add	a4,a4,a5
80002e6c:	fec42683          	lw	a3,-20(s0)
80002e70:	00068793          	mv	a5,a3
80002e74:	00479793          	slli	a5,a5,0x4
80002e78:	40d787b3          	sub	a5,a5,a3
80002e7c:	00379793          	slli	a5,a5,0x3
80002e80:	00078693          	mv	a3,a5
80002e84:	fdc42783          	lw	a5,-36(s0)
80002e88:	00d786b3          	add	a3,a5,a3
80002e8c:	51eb87b7          	lui	a5,0x51eb8
80002e90:	51f78793          	addi	a5,a5,1311 # 51eb851f <_jump-0x2e149ae1>
80002e94:	02f717b3          	mulh	a5,a4,a5
80002e98:	4057d613          	srai	a2,a5,0x5
80002e9c:	41f75793          	srai	a5,a4,0x1f
80002ea0:	40f607b3          	sub	a5,a2,a5
80002ea4:	06400613          	li	a2,100
80002ea8:	02c787b3          	mul	a5,a5,a2
80002eac:	40f707b3          	sub	a5,a4,a5
80002eb0:	fe842703          	lw	a4,-24(s0)
80002eb4:	00271713          	slli	a4,a4,0x2
80002eb8:	00e68733          	add	a4,a3,a4
80002ebc:	00f72023          	sw	a5,0(a4)
80002ec0:	fe842783          	lw	a5,-24(s0)
80002ec4:	00178793          	addi	a5,a5,1
80002ec8:	fef42423          	sw	a5,-24(s0)
80002ecc:	fe842703          	lw	a4,-24(s0)
80002ed0:	01d00793          	li	a5,29
80002ed4:	f8e7d2e3          	bge	a5,a4,80002e58 <init_matrix+0x28>
80002ed8:	fec42783          	lw	a5,-20(s0)
80002edc:	00178793          	addi	a5,a5,1
80002ee0:	fef42623          	sw	a5,-20(s0)
80002ee4:	fec42703          	lw	a4,-20(s0)
80002ee8:	01d00793          	li	a5,29
80002eec:	f6e7d2e3          	bge	a5,a4,80002e50 <init_matrix+0x20>
80002ef0:	00000013          	nop
80002ef4:	00000013          	nop
80002ef8:	02c12083          	lw	ra,44(sp)
80002efc:	02812403          	lw	s0,40(sp)
80002f00:	03010113          	addi	sp,sp,48
80002f04:	00008067          	ret

80002f08 <is_prime>:
80002f08:	fd010113          	addi	sp,sp,-48
80002f0c:	02112623          	sw	ra,44(sp)
80002f10:	02812423          	sw	s0,40(sp)
80002f14:	03010413          	addi	s0,sp,48
80002f18:	fca42e23          	sw	a0,-36(s0)
80002f1c:	fdc42703          	lw	a4,-36(s0)
80002f20:	00100793          	li	a5,1
80002f24:	00e7c663          	blt	a5,a4,80002f30 <is_prime+0x28>
80002f28:	00000793          	li	a5,0
80002f2c:	0480006f          	j	80002f74 <is_prime+0x6c>
80002f30:	00200793          	li	a5,2
80002f34:	fef42623          	sw	a5,-20(s0)
80002f38:	0280006f          	j	80002f60 <is_prime+0x58>
80002f3c:	fdc42703          	lw	a4,-36(s0)
80002f40:	fec42783          	lw	a5,-20(s0)
80002f44:	02f767b3          	rem	a5,a4,a5
80002f48:	00079663          	bnez	a5,80002f54 <is_prime+0x4c>
80002f4c:	00000793          	li	a5,0
80002f50:	0240006f          	j	80002f74 <is_prime+0x6c>
80002f54:	fec42783          	lw	a5,-20(s0)
80002f58:	00178793          	addi	a5,a5,1
80002f5c:	fef42623          	sw	a5,-20(s0)
80002f60:	fec42783          	lw	a5,-20(s0)
80002f64:	02f787b3          	mul	a5,a5,a5
80002f68:	fdc42703          	lw	a4,-36(s0)
80002f6c:	fcf758e3          	bge	a4,a5,80002f3c <is_prime+0x34>
80002f70:	00100793          	li	a5,1
80002f74:	00078513          	mv	a0,a5
80002f78:	02c12083          	lw	ra,44(sp)
80002f7c:	02812403          	lw	s0,40(sp)
80002f80:	03010113          	addi	sp,sp,48
80002f84:	00008067          	ret

80002f88 <validate_prime_calculation>:
80002f88:	fd010113          	addi	sp,sp,-48
80002f8c:	02112623          	sw	ra,44(sp)
80002f90:	02812423          	sw	s0,40(sp)
80002f94:	03010413          	addi	s0,sp,48
80002f98:	fe042623          	sw	zero,-20(s0)
80002f9c:	fe042423          	sw	zero,-24(s0)
80002fa0:	00200793          	li	a5,2
80002fa4:	fef42223          	sw	a5,-28(s0)
80002fa8:	0300006f          	j	80002fd8 <validate_prime_calculation+0x50>
80002fac:	fe442503          	lw	a0,-28(s0)
80002fb0:	00000097          	auipc	ra,0x0
80002fb4:	f58080e7          	jalr	-168(ra) # 80002f08 <is_prime>
80002fb8:	00050793          	mv	a5,a0
80002fbc:	00078863          	beqz	a5,80002fcc <validate_prime_calculation+0x44>
80002fc0:	fe842783          	lw	a5,-24(s0)
80002fc4:	00178793          	addi	a5,a5,1
80002fc8:	fef42423          	sw	a5,-24(s0)
80002fcc:	fe442783          	lw	a5,-28(s0)
80002fd0:	00178793          	addi	a5,a5,1
80002fd4:	fef42223          	sw	a5,-28(s0)
80002fd8:	fe442703          	lw	a4,-28(s0)
80002fdc:	000017b7          	lui	a5,0x1
80002fe0:	bb878793          	addi	a5,a5,-1096 # bb8 <_jump-0x80001448>
80002fe4:	fce7d4e3          	bge	a5,a4,80002fac <validate_prime_calculation+0x24>
80002fe8:	fe042023          	sw	zero,-32(s0)
80002fec:	02c0006f          	j	80003018 <validate_prime_calculation+0x90>
80002ff0:	800047b7          	lui	a5,0x80004
80002ff4:	2f878713          	addi	a4,a5,760 # 800042f8 <prime_table>
80002ff8:	fe042783          	lw	a5,-32(s0)
80002ffc:	00279793          	slli	a5,a5,0x2
80003000:	00f707b3          	add	a5,a4,a5
80003004:	00100713          	li	a4,1
80003008:	00e7a023          	sw	a4,0(a5)
8000300c:	fe042783          	lw	a5,-32(s0)
80003010:	00178793          	addi	a5,a5,1
80003014:	fef42023          	sw	a5,-32(s0)
80003018:	fe042703          	lw	a4,-32(s0)
8000301c:	000017b7          	lui	a5,0x1
80003020:	bb878793          	addi	a5,a5,-1096 # bb8 <_jump-0x80001448>
80003024:	fce7d6e3          	bge	a5,a4,80002ff0 <validate_prime_calculation+0x68>
80003028:	800047b7          	lui	a5,0x80004
8000302c:	2f878793          	addi	a5,a5,760 # 800042f8 <prime_table>
80003030:	0007a423          	sw	zero,8(a5)
80003034:	00200793          	li	a5,2
80003038:	fcf42e23          	sw	a5,-36(s0)
8000303c:	0800006f          	j	800030bc <validate_prime_calculation+0x134>
80003040:	800047b7          	lui	a5,0x80004
80003044:	2f878713          	addi	a4,a5,760 # 800042f8 <prime_table>
80003048:	fdc42783          	lw	a5,-36(s0)
8000304c:	00279793          	slli	a5,a5,0x2
80003050:	00f707b3          	add	a5,a4,a5
80003054:	0007a783          	lw	a5,0(a5)
80003058:	04078c63          	beqz	a5,800030b0 <validate_prime_calculation+0x128>
8000305c:	fec42783          	lw	a5,-20(s0)
80003060:	00178793          	addi	a5,a5,1
80003064:	fef42623          	sw	a5,-20(s0)
80003068:	fdc42783          	lw	a5,-36(s0)
8000306c:	00179793          	slli	a5,a5,0x1
80003070:	fcf42c23          	sw	a5,-40(s0)
80003074:	02c0006f          	j	800030a0 <validate_prime_calculation+0x118>
80003078:	800047b7          	lui	a5,0x80004
8000307c:	2f878713          	addi	a4,a5,760 # 800042f8 <prime_table>
80003080:	fd842783          	lw	a5,-40(s0)
80003084:	00279793          	slli	a5,a5,0x2
80003088:	00f707b3          	add	a5,a4,a5
8000308c:	0007a023          	sw	zero,0(a5)
80003090:	fd842703          	lw	a4,-40(s0)
80003094:	fdc42783          	lw	a5,-36(s0)
80003098:	00f707b3          	add	a5,a4,a5
8000309c:	fcf42c23          	sw	a5,-40(s0)
800030a0:	fd842703          	lw	a4,-40(s0)
800030a4:	000017b7          	lui	a5,0x1
800030a8:	bb878793          	addi	a5,a5,-1096 # bb8 <_jump-0x80001448>
800030ac:	fce7d6e3          	bge	a5,a4,80003078 <validate_prime_calculation+0xf0>
800030b0:	fdc42783          	lw	a5,-36(s0)
800030b4:	00178793          	addi	a5,a5,1
800030b8:	fcf42e23          	sw	a5,-36(s0)
800030bc:	fdc42703          	lw	a4,-36(s0)
800030c0:	000017b7          	lui	a5,0x1
800030c4:	bb878793          	addi	a5,a5,-1096 # bb8 <_jump-0x80001448>
800030c8:	f6e7dce3          	bge	a5,a4,80003040 <validate_prime_calculation+0xb8>
800030cc:	fec42703          	lw	a4,-20(s0)
800030d0:	fe842783          	lw	a5,-24(s0)
800030d4:	40f707b3          	sub	a5,a4,a5
800030d8:	0017b793          	seqz	a5,a5
800030dc:	0ff7f793          	zext.b	a5,a5
800030e0:	00078513          	mv	a0,a5
800030e4:	02c12083          	lw	ra,44(sp)
800030e8:	02812403          	lw	s0,40(sp)
800030ec:	03010113          	addi	sp,sp,48
800030f0:	00008067          	ret

800030f4 <sort_insertion>:
800030f4:	fd010113          	addi	sp,sp,-48
800030f8:	02112623          	sw	ra,44(sp)
800030fc:	02812423          	sw	s0,40(sp)
80003100:	03010413          	addi	s0,sp,48
80003104:	fca42e23          	sw	a0,-36(s0)
80003108:	fcb42c23          	sw	a1,-40(s0)
8000310c:	00100793          	li	a5,1
80003110:	fef42623          	sw	a5,-20(s0)
80003114:	0b00006f          	j	800031c4 <sort_insertion+0xd0>
80003118:	fec42783          	lw	a5,-20(s0)
8000311c:	00279793          	slli	a5,a5,0x2
80003120:	fdc42703          	lw	a4,-36(s0)
80003124:	00f707b3          	add	a5,a4,a5
80003128:	0007a783          	lw	a5,0(a5)
8000312c:	fef42223          	sw	a5,-28(s0)
80003130:	fec42783          	lw	a5,-20(s0)
80003134:	fff78793          	addi	a5,a5,-1
80003138:	fef42423          	sw	a5,-24(s0)
8000313c:	03c0006f          	j	80003178 <sort_insertion+0x84>
80003140:	fe842783          	lw	a5,-24(s0)
80003144:	00279793          	slli	a5,a5,0x2
80003148:	fdc42703          	lw	a4,-36(s0)
8000314c:	00f70733          	add	a4,a4,a5
80003150:	fe842783          	lw	a5,-24(s0)
80003154:	00178793          	addi	a5,a5,1
80003158:	00279793          	slli	a5,a5,0x2
8000315c:	fdc42683          	lw	a3,-36(s0)
80003160:	00f687b3          	add	a5,a3,a5
80003164:	00072703          	lw	a4,0(a4)
80003168:	00e7a023          	sw	a4,0(a5)
8000316c:	fe842783          	lw	a5,-24(s0)
80003170:	fff78793          	addi	a5,a5,-1
80003174:	fef42423          	sw	a5,-24(s0)
80003178:	fe842783          	lw	a5,-24(s0)
8000317c:	0207c063          	bltz	a5,8000319c <sort_insertion+0xa8>
80003180:	fe842783          	lw	a5,-24(s0)
80003184:	00279793          	slli	a5,a5,0x2
80003188:	fdc42703          	lw	a4,-36(s0)
8000318c:	00f707b3          	add	a5,a4,a5
80003190:	0007a783          	lw	a5,0(a5)
80003194:	fe442703          	lw	a4,-28(s0)
80003198:	faf744e3          	blt	a4,a5,80003140 <sort_insertion+0x4c>
8000319c:	fe842783          	lw	a5,-24(s0)
800031a0:	00178793          	addi	a5,a5,1
800031a4:	00279793          	slli	a5,a5,0x2
800031a8:	fdc42703          	lw	a4,-36(s0)
800031ac:	00f707b3          	add	a5,a4,a5
800031b0:	fe442703          	lw	a4,-28(s0)
800031b4:	00e7a023          	sw	a4,0(a5)
800031b8:	fec42783          	lw	a5,-20(s0)
800031bc:	00178793          	addi	a5,a5,1
800031c0:	fef42623          	sw	a5,-20(s0)
800031c4:	fec42703          	lw	a4,-20(s0)
800031c8:	fd842783          	lw	a5,-40(s0)
800031cc:	f4f746e3          	blt	a4,a5,80003118 <sort_insertion+0x24>
800031d0:	00000013          	nop
800031d4:	00000013          	nop
800031d8:	02c12083          	lw	ra,44(sp)
800031dc:	02812403          	lw	s0,40(sp)
800031e0:	03010113          	addi	sp,sp,48
800031e4:	00008067          	ret

800031e8 <sort_selection>:
800031e8:	fd010113          	addi	sp,sp,-48
800031ec:	02112623          	sw	ra,44(sp)
800031f0:	02812423          	sw	s0,40(sp)
800031f4:	03010413          	addi	s0,sp,48
800031f8:	fca42e23          	sw	a0,-36(s0)
800031fc:	fcb42c23          	sw	a1,-40(s0)
80003200:	fe042623          	sw	zero,-20(s0)
80003204:	0d80006f          	j	800032dc <sort_selection+0xf4>
80003208:	fec42783          	lw	a5,-20(s0)
8000320c:	fef42223          	sw	a5,-28(s0)
80003210:	fec42783          	lw	a5,-20(s0)
80003214:	00178793          	addi	a5,a5,1
80003218:	fef42423          	sw	a5,-24(s0)
8000321c:	0440006f          	j	80003260 <sort_selection+0x78>
80003220:	fe842783          	lw	a5,-24(s0)
80003224:	00279793          	slli	a5,a5,0x2
80003228:	fdc42703          	lw	a4,-36(s0)
8000322c:	00f707b3          	add	a5,a4,a5
80003230:	0007a703          	lw	a4,0(a5)
80003234:	fe442783          	lw	a5,-28(s0)
80003238:	00279793          	slli	a5,a5,0x2
8000323c:	fdc42683          	lw	a3,-36(s0)
80003240:	00f687b3          	add	a5,a3,a5
80003244:	0007a783          	lw	a5,0(a5)
80003248:	00f75663          	bge	a4,a5,80003254 <sort_selection+0x6c>
8000324c:	fe842783          	lw	a5,-24(s0)
80003250:	fef42223          	sw	a5,-28(s0)
80003254:	fe842783          	lw	a5,-24(s0)
80003258:	00178793          	addi	a5,a5,1
8000325c:	fef42423          	sw	a5,-24(s0)
80003260:	fe842703          	lw	a4,-24(s0)
80003264:	fd842783          	lw	a5,-40(s0)
80003268:	faf74ce3          	blt	a4,a5,80003220 <sort_selection+0x38>
8000326c:	fe442703          	lw	a4,-28(s0)
80003270:	fec42783          	lw	a5,-20(s0)
80003274:	04f70e63          	beq	a4,a5,800032d0 <sort_selection+0xe8>
80003278:	fec42783          	lw	a5,-20(s0)
8000327c:	00279793          	slli	a5,a5,0x2
80003280:	fdc42703          	lw	a4,-36(s0)
80003284:	00f707b3          	add	a5,a4,a5
80003288:	0007a783          	lw	a5,0(a5)
8000328c:	fef42023          	sw	a5,-32(s0)
80003290:	fe442783          	lw	a5,-28(s0)
80003294:	00279793          	slli	a5,a5,0x2
80003298:	fdc42703          	lw	a4,-36(s0)
8000329c:	00f70733          	add	a4,a4,a5
800032a0:	fec42783          	lw	a5,-20(s0)
800032a4:	00279793          	slli	a5,a5,0x2
800032a8:	fdc42683          	lw	a3,-36(s0)
800032ac:	00f687b3          	add	a5,a3,a5
800032b0:	00072703          	lw	a4,0(a4)
800032b4:	00e7a023          	sw	a4,0(a5)
800032b8:	fe442783          	lw	a5,-28(s0)
800032bc:	00279793          	slli	a5,a5,0x2
800032c0:	fdc42703          	lw	a4,-36(s0)
800032c4:	00f707b3          	add	a5,a4,a5
800032c8:	fe042703          	lw	a4,-32(s0)
800032cc:	00e7a023          	sw	a4,0(a5)
800032d0:	fec42783          	lw	a5,-20(s0)
800032d4:	00178793          	addi	a5,a5,1
800032d8:	fef42623          	sw	a5,-20(s0)
800032dc:	fd842783          	lw	a5,-40(s0)
800032e0:	fff78793          	addi	a5,a5,-1
800032e4:	fec42703          	lw	a4,-20(s0)
800032e8:	f2f740e3          	blt	a4,a5,80003208 <sort_selection+0x20>
800032ec:	00000013          	nop
800032f0:	00000013          	nop
800032f4:	02c12083          	lw	ra,44(sp)
800032f8:	02812403          	lw	s0,40(sp)
800032fc:	03010113          	addi	sp,sp,48
80003300:	00008067          	ret

80003304 <array_equal>:
80003304:	fd010113          	addi	sp,sp,-48
80003308:	02112623          	sw	ra,44(sp)
8000330c:	02812423          	sw	s0,40(sp)
80003310:	03010413          	addi	s0,sp,48
80003314:	fca42e23          	sw	a0,-36(s0)
80003318:	fcb42c23          	sw	a1,-40(s0)
8000331c:	fcc42a23          	sw	a2,-44(s0)
80003320:	fe042623          	sw	zero,-20(s0)
80003324:	0440006f          	j	80003368 <array_equal+0x64>
80003328:	fec42783          	lw	a5,-20(s0)
8000332c:	00279793          	slli	a5,a5,0x2
80003330:	fdc42703          	lw	a4,-36(s0)
80003334:	00f707b3          	add	a5,a4,a5
80003338:	0007a703          	lw	a4,0(a5)
8000333c:	fec42783          	lw	a5,-20(s0)
80003340:	00279793          	slli	a5,a5,0x2
80003344:	fd842683          	lw	a3,-40(s0)
80003348:	00f687b3          	add	a5,a3,a5
8000334c:	0007a783          	lw	a5,0(a5)
80003350:	00f70663          	beq	a4,a5,8000335c <array_equal+0x58>
80003354:	00000793          	li	a5,0
80003358:	0200006f          	j	80003378 <array_equal+0x74>
8000335c:	fec42783          	lw	a5,-20(s0)
80003360:	00178793          	addi	a5,a5,1
80003364:	fef42623          	sw	a5,-20(s0)
80003368:	fec42703          	lw	a4,-20(s0)
8000336c:	fd442783          	lw	a5,-44(s0)
80003370:	faf74ce3          	blt	a4,a5,80003328 <array_equal+0x24>
80003374:	00100793          	li	a5,1
80003378:	00078513          	mv	a0,a5
8000337c:	02c12083          	lw	ra,44(sp)
80003380:	02812403          	lw	s0,40(sp)
80003384:	03010113          	addi	sp,sp,48
80003388:	00008067          	ret

8000338c <init_array>:
8000338c:	fd010113          	addi	sp,sp,-48
80003390:	02112623          	sw	ra,44(sp)
80003394:	02812423          	sw	s0,40(sp)
80003398:	03010413          	addi	s0,sp,48
8000339c:	fca42e23          	sw	a0,-36(s0)
800033a0:	fcb42c23          	sw	a1,-40(s0)
800033a4:	fcc42a23          	sw	a2,-44(s0)
800033a8:	fe042623          	sw	zero,-20(s0)
800033ac:	0800006f          	j	8000342c <init_array+0xa0>
800033b0:	fd842703          	lw	a4,-40(s0)
800033b4:	00070793          	mv	a5,a4
800033b8:	00379793          	slli	a5,a5,0x3
800033bc:	00e787b3          	add	a5,a5,a4
800033c0:	00379793          	slli	a5,a5,0x3
800033c4:	00e78733          	add	a4,a5,a4
800033c8:	fd442783          	lw	a5,-44(s0)
800033cc:	00078693          	mv	a3,a5
800033d0:	00579793          	slli	a5,a5,0x5
800033d4:	40f687b3          	sub	a5,a3,a5
800033d8:	00f70733          	add	a4,a4,a5
800033dc:	fec42783          	lw	a5,-20(s0)
800033e0:	00f70733          	add	a4,a4,a5
800033e4:	fec42783          	lw	a5,-20(s0)
800033e8:	00279793          	slli	a5,a5,0x2
800033ec:	fdc42683          	lw	a3,-36(s0)
800033f0:	00f686b3          	add	a3,a3,a5
800033f4:	54f407b7          	lui	a5,0x54f40
800033f8:	dc378793          	addi	a5,a5,-573 # 54f3fdc3 <_jump-0x2b0c223d>
800033fc:	02f717b3          	mulh	a5,a4,a5
80003400:	40c7d613          	srai	a2,a5,0xc
80003404:	41f75793          	srai	a5,a4,0x1f
80003408:	40f607b3          	sub	a5,a2,a5
8000340c:	00003637          	lui	a2,0x3
80003410:	03760613          	addi	a2,a2,55 # 3037 <_jump-0x7fffefc9>
80003414:	02c787b3          	mul	a5,a5,a2
80003418:	40f707b3          	sub	a5,a4,a5
8000341c:	00f6a023          	sw	a5,0(a3)
80003420:	fec42783          	lw	a5,-20(s0)
80003424:	00178793          	addi	a5,a5,1
80003428:	fef42623          	sw	a5,-20(s0)
8000342c:	fec42703          	lw	a4,-20(s0)
80003430:	fd842783          	lw	a5,-40(s0)
80003434:	f6f74ee3          	blt	a4,a5,800033b0 <init_array+0x24>
80003438:	00000013          	nop
8000343c:	00000013          	nop
80003440:	02c12083          	lw	ra,44(sp)
80003444:	02812403          	lw	s0,40(sp)
80003448:	03010113          	addi	sp,sp,48
8000344c:	00008067          	ret

80003450 <__udivdi3>:
  DWunion rr;
  UWtype d0, d1, n0, n1, n2;
  UWtype q0, q1;
  UWtype b, bm;

  d0 = dd.s.low;
80003450:	00060713          	mv	a4,a2
  d1 = dd.s.high;
80003454:	00068893          	mv	a7,a3
  n0 = nn.s.low;
80003458:	00050813          	mv	a6,a0
  n1 = nn.s.high;
8000345c:	00058313          	mv	t1,a1
	}
    }

#else /* UDIV_NEEDS_NORMALIZATION */

  if (d1 == 0)
80003460:	24069463          	bnez	a3,800036a8 <__udivdi3+0x258>
    {
      if (d0 > n1)
80003464:	800047b7          	lui	a5,0x80004
80003468:	8f878793          	addi	a5,a5,-1800 # 800038f8 <__clz_tab>
8000346c:	0ec5f463          	bgeu	a1,a2,80003554 <__udivdi3+0x104>
	{
	  /* 0q = nn / 0D */

	  count_leading_zeros (bm, d0);
80003470:	000106b7          	lui	a3,0x10
80003474:	0cd67063          	bgeu	a2,a3,80003534 <__udivdi3+0xe4>
80003478:	10063693          	sltiu	a3,a2,256
8000347c:	0016b693          	seqz	a3,a3
80003480:	00369693          	slli	a3,a3,0x3
80003484:	00d65e33          	srl	t3,a2,a3
80003488:	01c787b3          	add	a5,a5,t3
8000348c:	0007c783          	lbu	a5,0(a5)
80003490:	00d787b3          	add	a5,a5,a3

	  if (bm != 0)
80003494:	02000693          	li	a3,32
80003498:	00d78e63          	beq	a5,a3,800034b4 <__udivdi3+0x64>
	  count_leading_zeros (bm, d0);
8000349c:	40f686b3          	sub	a3,a3,a5
	    {
	      /* Normalize, i.e. make the most significant bit of the
		 denominator set.  */

	      d0 = d0 << bm;
	      n1 = (n1 << bm) | (n0 >> (W_TYPE_SIZE - bm));
800034a0:	00d59333          	sll	t1,a1,a3
800034a4:	00f557b3          	srl	a5,a0,a5
	      d0 = d0 << bm;
800034a8:	00d61733          	sll	a4,a2,a3
	      n1 = (n1 << bm) | (n0 >> (W_TYPE_SIZE - bm));
800034ac:	0067e333          	or	t1,a5,t1
	      n0 = n0 << bm;
800034b0:	00d51833          	sll	a6,a0,a3
	    }

	  udiv_qrnnd (q0, n0, n1, n0, d0);
800034b4:	01075513          	srli	a0,a4,0x10
800034b8:	02a357b3          	divu	a5,t1,a0
800034bc:	01071593          	slli	a1,a4,0x10
800034c0:	0105d593          	srli	a1,a1,0x10
800034c4:	01085693          	srli	a3,a6,0x10
800034c8:	02a37333          	remu	t1,t1,a0
800034cc:	02f58633          	mul	a2,a1,a5
800034d0:	01031313          	slli	t1,t1,0x10
800034d4:	0066e6b3          	or	a3,a3,t1
800034d8:	00c6fa63          	bgeu	a3,a2,800034ec <__udivdi3+0x9c>
800034dc:	00d706b3          	add	a3,a4,a3
800034e0:	00c6f463          	bgeu	a3,a2,800034e8 <__udivdi3+0x98>
800034e4:	06e6f263          	bgeu	a3,a4,80003548 <__udivdi3+0xf8>
800034e8:	fff78793          	addi	a5,a5,-1
800034ec:	40c686b3          	sub	a3,a3,a2
	      udiv_qrnnd (q1, n1, n2, n1, d0);
	    }

	  /* n1 != d0...  */

	  udiv_qrnnd (q0, n0, n1, n0, d0);
800034f0:	02a6d633          	divu	a2,a3,a0
800034f4:	01081813          	slli	a6,a6,0x10
800034f8:	01085813          	srli	a6,a6,0x10
800034fc:	02a6f6b3          	remu	a3,a3,a0
80003500:	02c585b3          	mul	a1,a1,a2
80003504:	01069693          	slli	a3,a3,0x10
80003508:	00d86833          	or	a6,a6,a3
8000350c:	00b87a63          	bgeu	a6,a1,80003520 <__udivdi3+0xd0>
80003510:	01070833          	add	a6,a4,a6
80003514:	00b87463          	bgeu	a6,a1,8000351c <__udivdi3+0xcc>
80003518:	18e87463          	bgeu	a6,a4,800036a0 <__udivdi3+0x250>
8000351c:	fff60613          	addi	a2,a2,-1
80003520:	01079793          	slli	a5,a5,0x10
80003524:	00c7e7b3          	or	a5,a5,a2
#ifdef L_udivdi3
UDWtype
__udivdi3 (UDWtype n, UDWtype d)
{
  return __udivmoddi4 (n, d, (UDWtype *) 0);
}
80003528:	00078513          	mv	a0,a5
8000352c:	00088593          	mv	a1,a7
80003530:	00008067          	ret
	  count_leading_zeros (bm, d0);
80003534:	01000e37          	lui	t3,0x1000
80003538:	01800693          	li	a3,24
8000353c:	f5c674e3          	bgeu	a2,t3,80003484 <__udivdi3+0x34>
80003540:	01000693          	li	a3,16
80003544:	f41ff06f          	j	80003484 <__udivdi3+0x34>
	  udiv_qrnnd (q0, n0, n1, n0, d0);
80003548:	ffe78793          	addi	a5,a5,-2
8000354c:	00e686b3          	add	a3,a3,a4
80003550:	f9dff06f          	j	800034ec <__udivdi3+0x9c>
	  count_leading_zeros (bm, d0);
80003554:	00000693          	li	a3,0
	  if (d0 == 0)
80003558:	00060c63          	beqz	a2,80003570 <__udivdi3+0x120>
	  count_leading_zeros (bm, d0);
8000355c:	000106b7          	lui	a3,0x10
80003560:	06d67863          	bgeu	a2,a3,800035d0 <__udivdi3+0x180>
80003564:	10063693          	sltiu	a3,a2,256
80003568:	0016b693          	seqz	a3,a3
8000356c:	00369693          	slli	a3,a3,0x3
80003570:	00d658b3          	srl	a7,a2,a3
80003574:	011787b3          	add	a5,a5,a7
80003578:	0007c783          	lbu	a5,0(a5)
8000357c:	00d787b3          	add	a5,a5,a3
	  if (bm == 0)
80003580:	02000693          	li	a3,32
80003584:	06d79063          	bne	a5,a3,800035e4 <__udivdi3+0x194>
	      n1 -= d0;
80003588:	40c58633          	sub	a2,a1,a2
	      q1 = 1;
8000358c:	00100893          	li	a7,1
	  udiv_qrnnd (q0, n0, n1, n0, d0);
80003590:	01075513          	srli	a0,a4,0x10
80003594:	02a657b3          	divu	a5,a2,a0
80003598:	01071593          	slli	a1,a4,0x10
8000359c:	0105d593          	srli	a1,a1,0x10
800035a0:	01085693          	srli	a3,a6,0x10
800035a4:	02a67633          	remu	a2,a2,a0
800035a8:	02f58333          	mul	t1,a1,a5
800035ac:	01061613          	slli	a2,a2,0x10
800035b0:	00c6e6b3          	or	a3,a3,a2
800035b4:	0066fa63          	bgeu	a3,t1,800035c8 <__udivdi3+0x178>
800035b8:	00d706b3          	add	a3,a4,a3
800035bc:	0066f463          	bgeu	a3,t1,800035c4 <__udivdi3+0x174>
800035c0:	0ce6fa63          	bgeu	a3,a4,80003694 <__udivdi3+0x244>
800035c4:	fff78793          	addi	a5,a5,-1
800035c8:	406686b3          	sub	a3,a3,t1
800035cc:	f25ff06f          	j	800034f0 <__udivdi3+0xa0>
	  count_leading_zeros (bm, d0);
800035d0:	010008b7          	lui	a7,0x1000
800035d4:	01800693          	li	a3,24
800035d8:	f9167ce3          	bgeu	a2,a7,80003570 <__udivdi3+0x120>
800035dc:	01000693          	li	a3,16
800035e0:	f91ff06f          	j	80003570 <__udivdi3+0x120>
800035e4:	40f68833          	sub	a6,a3,a5
	      d0 = d0 << bm;
800035e8:	01061733          	sll	a4,a2,a6
	      n2 = n1 >> b;
800035ec:	00f5d6b3          	srl	a3,a1,a5
	      n1 = (n1 << bm) | (n0 >> b);
800035f0:	010595b3          	sll	a1,a1,a6
800035f4:	00f557b3          	srl	a5,a0,a5
	      n0 = n0 << bm;
800035f8:	01051833          	sll	a6,a0,a6
	      udiv_qrnnd (q1, n1, n2, n1, d0);
800035fc:	01075513          	srli	a0,a4,0x10
80003600:	02a6d8b3          	divu	a7,a3,a0
80003604:	01071613          	slli	a2,a4,0x10
80003608:	01065613          	srli	a2,a2,0x10
	      n1 = (n1 << bm) | (n0 >> b);
8000360c:	00b7e7b3          	or	a5,a5,a1
	      udiv_qrnnd (q1, n1, n2, n1, d0);
80003610:	02a6f6b3          	remu	a3,a3,a0
80003614:	03160333          	mul	t1,a2,a7
80003618:	01069593          	slli	a1,a3,0x10
8000361c:	0107d693          	srli	a3,a5,0x10
80003620:	00b6e6b3          	or	a3,a3,a1
80003624:	0066fa63          	bgeu	a3,t1,80003638 <__udivdi3+0x1e8>
80003628:	00d706b3          	add	a3,a4,a3
8000362c:	0066f463          	bgeu	a3,t1,80003634 <__udivdi3+0x1e4>
80003630:	04e6f663          	bgeu	a3,a4,8000367c <__udivdi3+0x22c>
80003634:	fff88893          	addi	a7,a7,-1 # ffffff <_jump-0x7f002001>
80003638:	406686b3          	sub	a3,a3,t1
8000363c:	02a6d5b3          	divu	a1,a3,a0
80003640:	01079793          	slli	a5,a5,0x10
80003644:	0107d793          	srli	a5,a5,0x10
80003648:	02a6f6b3          	remu	a3,a3,a0
8000364c:	02b60633          	mul	a2,a2,a1
80003650:	01069693          	slli	a3,a3,0x10
80003654:	00d7e7b3          	or	a5,a5,a3
80003658:	00c7fa63          	bgeu	a5,a2,8000366c <__udivdi3+0x21c>
8000365c:	00f707b3          	add	a5,a4,a5
80003660:	00c7f463          	bgeu	a5,a2,80003668 <__udivdi3+0x218>
80003664:	02e7f263          	bgeu	a5,a4,80003688 <__udivdi3+0x238>
80003668:	fff58593          	addi	a1,a1,-1
8000366c:	01089893          	slli	a7,a7,0x10
80003670:	40c78633          	sub	a2,a5,a2
80003674:	00b8e8b3          	or	a7,a7,a1
80003678:	f19ff06f          	j	80003590 <__udivdi3+0x140>
8000367c:	ffe88893          	addi	a7,a7,-2
80003680:	00e686b3          	add	a3,a3,a4
80003684:	fb5ff06f          	j	80003638 <__udivdi3+0x1e8>
80003688:	ffe58593          	addi	a1,a1,-2
8000368c:	00e787b3          	add	a5,a5,a4
80003690:	fddff06f          	j	8000366c <__udivdi3+0x21c>
	  udiv_qrnnd (q0, n0, n1, n0, d0);
80003694:	ffe78793          	addi	a5,a5,-2
80003698:	00e686b3          	add	a3,a3,a4
8000369c:	f2dff06f          	j	800035c8 <__udivdi3+0x178>
800036a0:	ffe60613          	addi	a2,a2,-2
800036a4:	e7dff06f          	j	80003520 <__udivdi3+0xd0>
      if (d1 > n1)
800036a8:	18d5e463          	bltu	a1,a3,80003830 <__udivdi3+0x3e0>
	  count_leading_zeros (bm, d1);
800036ac:	000107b7          	lui	a5,0x10
800036b0:	04f6f463          	bgeu	a3,a5,800036f8 <__udivdi3+0x2a8>
800036b4:	1006b793          	sltiu	a5,a3,256
800036b8:	0017b793          	seqz	a5,a5
800036bc:	00379793          	slli	a5,a5,0x3
800036c0:	80004737          	lui	a4,0x80004
800036c4:	00f6d833          	srl	a6,a3,a5
800036c8:	8f870713          	addi	a4,a4,-1800 # 800038f8 <__clz_tab>
800036cc:	01070733          	add	a4,a4,a6
800036d0:	00074703          	lbu	a4,0(a4)
	  if (bm == 0)
800036d4:	02000813          	li	a6,32
	  count_leading_zeros (bm, d1);
800036d8:	00f70733          	add	a4,a4,a5
	  if (bm == 0)
800036dc:	03071863          	bne	a4,a6,8000370c <__udivdi3+0x2bc>
	      if (n1 > d1 || n0 >= d0)
800036e0:	00c537b3          	sltu	a5,a0,a2
800036e4:	0017b793          	seqz	a5,a5
800036e8:	00b6b6b3          	sltu	a3,a3,a1
800036ec:	00d7e7b3          	or	a5,a5,a3
	      q1 = 0;
800036f0:	00000893          	li	a7,0
800036f4:	e35ff06f          	j	80003528 <__udivdi3+0xd8>
	  count_leading_zeros (bm, d1);
800036f8:	01000737          	lui	a4,0x1000
800036fc:	01800793          	li	a5,24
80003700:	fce6f0e3          	bgeu	a3,a4,800036c0 <__udivdi3+0x270>
80003704:	01000793          	li	a5,16
80003708:	fb9ff06f          	j	800036c0 <__udivdi3+0x270>
8000370c:	40e80833          	sub	a6,a6,a4
	      d1 = (d1 << bm) | (d0 >> b);
80003710:	00e658b3          	srl	a7,a2,a4
80003714:	010696b3          	sll	a3,a3,a6
80003718:	00d8e8b3          	or	a7,a7,a3
	      udiv_qrnnd (q0, n1, n2, n1, d1);
8000371c:	0108de13          	srli	t3,a7,0x10
	      n2 = n1 >> b;
80003720:	00e5d6b3          	srl	a3,a1,a4
	      udiv_qrnnd (q0, n1, n2, n1, d1);
80003724:	03c6d7b3          	divu	a5,a3,t3
80003728:	01089313          	slli	t1,a7,0x10
8000372c:	01035313          	srli	t1,t1,0x10
	      n1 = (n1 << bm) | (n0 >> b);
80003730:	010595b3          	sll	a1,a1,a6
80003734:	00e55733          	srl	a4,a0,a4
80003738:	00b76733          	or	a4,a4,a1
	      d0 = d0 << bm;
8000373c:	01061633          	sll	a2,a2,a6
	      udiv_qrnnd (q0, n1, n2, n1, d1);
80003740:	03c6f6b3          	remu	a3,a3,t3
80003744:	02f30eb3          	mul	t4,t1,a5
80003748:	01069593          	slli	a1,a3,0x10
8000374c:	01075693          	srli	a3,a4,0x10
80003750:	00b6e6b3          	or	a3,a3,a1
80003754:	01d6fa63          	bgeu	a3,t4,80003768 <__udivdi3+0x318>
80003758:	00d886b3          	add	a3,a7,a3
8000375c:	01d6f463          	bgeu	a3,t4,80003764 <__udivdi3+0x314>
80003760:	0b16fc63          	bgeu	a3,a7,80003818 <__udivdi3+0x3c8>
80003764:	fff78793          	addi	a5,a5,-1 # ffff <_jump-0x7fff2001>
80003768:	41d686b3          	sub	a3,a3,t4
8000376c:	03c6d5b3          	divu	a1,a3,t3
80003770:	01071713          	slli	a4,a4,0x10
80003774:	01075713          	srli	a4,a4,0x10
80003778:	03c6f6b3          	remu	a3,a3,t3
8000377c:	02b30333          	mul	t1,t1,a1
80003780:	01069693          	slli	a3,a3,0x10
80003784:	00d76733          	or	a4,a4,a3
80003788:	00677a63          	bgeu	a4,t1,8000379c <__udivdi3+0x34c>
8000378c:	00e88733          	add	a4,a7,a4
80003790:	00677463          	bgeu	a4,t1,80003798 <__udivdi3+0x348>
80003794:	09177863          	bgeu	a4,a7,80003824 <__udivdi3+0x3d4>
80003798:	fff58593          	addi	a1,a1,-1
8000379c:	01079793          	slli	a5,a5,0x10
800037a0:	00b7e7b3          	or	a5,a5,a1
800037a4:	40670733          	sub	a4,a4,t1
	      umul_ppmm (m1, m0, q0, d0);
800037a8:	01059593          	slli	a1,a1,0x10
800037ac:	01061313          	slli	t1,a2,0x10
800037b0:	0105d593          	srli	a1,a1,0x10
800037b4:	0107d893          	srli	a7,a5,0x10
800037b8:	01035313          	srli	t1,t1,0x10
800037bc:	01065613          	srli	a2,a2,0x10
800037c0:	02658e33          	mul	t3,a1,t1
800037c4:	02688333          	mul	t1,a7,t1
800037c8:	010e5693          	srli	a3,t3,0x10
800037cc:	02c585b3          	mul	a1,a1,a2
800037d0:	006585b3          	add	a1,a1,t1
800037d4:	00b686b3          	add	a3,a3,a1
800037d8:	02c888b3          	mul	a7,a7,a2
800037dc:	0066f663          	bgeu	a3,t1,800037e8 <__udivdi3+0x398>
800037e0:	00010637          	lui	a2,0x10
800037e4:	00c888b3          	add	a7,a7,a2
800037e8:	0106d613          	srli	a2,a3,0x10
800037ec:	01160633          	add	a2,a2,a7
	      if (m1 > n1 || (m1 == n1 && m0 > n0))
800037f0:	02c76063          	bltu	a4,a2,80003810 <__udivdi3+0x3c0>
	      umul_ppmm (m1, m0, q0, d0);
800037f4:	010e1e13          	slli	t3,t3,0x10
800037f8:	01069693          	slli	a3,a3,0x10
800037fc:	010e5e13          	srli	t3,t3,0x10
	      n0 = n0 << bm;
80003800:	01051533          	sll	a0,a0,a6
	      umul_ppmm (m1, m0, q0, d0);
80003804:	01c686b3          	add	a3,a3,t3
	      if (m1 > n1 || (m1 == n1 && m0 > n0))
80003808:	eed574e3          	bgeu	a0,a3,800036f0 <__udivdi3+0x2a0>
8000380c:	eec712e3          	bne	a4,a2,800036f0 <__udivdi3+0x2a0>
		  q0--;
80003810:	fff78793          	addi	a5,a5,-1
		  sub_ddmmss (m1, m0, m1, m0, d1, d0);
80003814:	eddff06f          	j	800036f0 <__udivdi3+0x2a0>
	      udiv_qrnnd (q0, n1, n2, n1, d1);
80003818:	ffe78793          	addi	a5,a5,-2
8000381c:	011686b3          	add	a3,a3,a7
80003820:	f49ff06f          	j	80003768 <__udivdi3+0x318>
80003824:	ffe58593          	addi	a1,a1,-2
80003828:	01170733          	add	a4,a4,a7
8000382c:	f71ff06f          	j	8000379c <__udivdi3+0x34c>
	  q1 = 0;
80003830:	00000893          	li	a7,0
	  q0 = 0;
80003834:	00000793          	li	a5,0
80003838:	cf1ff06f          	j	80003528 <__udivdi3+0xd8>

Disassembly of section .data:

8000383c <__data_start>:
8000383c:	74726f73          	csrrsi	t5,0x747,4
80003840:	7020                	.insn	2, 0x7020
80003842:	6f72                	.insn	2, 0x6f72
80003844:	6d617267          	.insn	4, 0x6d617267
80003848:	6620                	.insn	2, 0x6620
8000384a:	6961                	.insn	2, 0x6961
8000384c:	656c                	.insn	2, 0x656c
8000384e:	2164                	.insn	2, 0x2164
80003850:	000a                	.insn	2, 0x000a
80003852:	0000                	.insn	2, 0x0000
80003854:	7270                	.insn	2, 0x7270
80003856:	6d69                	.insn	2, 0x6d69
80003858:	2065                	.insn	2, 0x2065
8000385a:	7270                	.insn	2, 0x7270
8000385c:	6172676f          	jal	a4,8002a672 <__stack_top+0x1a672>
80003860:	206d                	.insn	2, 0x206d
80003862:	6166                	.insn	2, 0x6166
80003864:	6c69                	.insn	2, 0x6c69
80003866:	6465                	.insn	2, 0x6465
80003868:	0a21                	.insn	2, 0x0a21
8000386a:	0000                	.insn	2, 0x0000
8000386c:	20637263          	bgeu	t1,t1,80003a70 <__data_end+0x78>
80003870:	7270                	.insn	2, 0x7270
80003872:	6172676f          	jal	a4,8002a688 <__stack_top+0x1a688>
80003876:	206d                	.insn	2, 0x206d
80003878:	6166                	.insn	2, 0x6166
8000387a:	6c69                	.insn	2, 0x6c69
8000387c:	6465                	.insn	2, 0x6465
8000387e:	0a21                	.insn	2, 0x0a21
80003880:	0000                	.insn	2, 0x0000
80003882:	0000                	.insn	2, 0x0000
80003884:	616d                	.insn	2, 0x616d
80003886:	7274                	.insn	2, 0x7274
80003888:	7869                	.insn	2, 0x7869
8000388a:	7020                	.insn	2, 0x7020
8000388c:	6f72                	.insn	2, 0x6f72
8000388e:	6d617267          	.insn	4, 0x6d617267
80003892:	6620                	.insn	2, 0x6620
80003894:	6961                	.insn	2, 0x6961
80003896:	656c                	.insn	2, 0x656c
80003898:	2164                	.insn	2, 0x2164
8000389a:	000a                	.insn	2, 0x000a
8000389c:	7366                	.insn	2, 0x7366
8000389e:	206d                	.insn	2, 0x206d
800038a0:	7270                	.insn	2, 0x7270
800038a2:	6172676f          	jal	a4,8002a6b8 <__stack_top+0x1a6b8>
800038a6:	206d                	.insn	2, 0x206d
800038a8:	6166                	.insn	2, 0x6166
800038aa:	6c69                	.insn	2, 0x6c69
800038ac:	6465                	.insn	2, 0x6465
800038ae:	0a21                	.insn	2, 0x0a21
800038b0:	0000                	.insn	2, 0x0000
800038b2:	0000                	.insn	2, 0x0000
800038b4:	6548                	.insn	2, 0x6548
800038b6:	6c6c                	.insn	2, 0x6c6c
800038b8:	7266206f          	j	80065fde <__stack_top+0x55fde>
800038bc:	74206d6f          	jal	s10,80009ffe <C2+0x3e2>
800038c0:	7365                	.insn	2, 0x7365
800038c2:	2074                	.insn	2, 0x2074
800038c4:	65646f63          	bltu	s0,s6,80003f22 <__data_end+0x52a>
800038c8:	0a21                	.insn	2, 0x0a21
800038ca:	0000                	.insn	2, 0x0000
800038cc:	6974                	.insn	2, 0x6974
800038ce:	203a6b63          	bltu	s4,gp,80003ae4 <__data_end+0xec>
800038d2:	6c25                	.insn	2, 0x6c25
800038d4:	0a64                	.insn	2, 0x0a64
800038d6:	0000                	.insn	2, 0x0000
800038d8:	6554                	.insn	2, 0x6554
800038da:	72207473          	csrrci	s0,minstretcfgh,0
800038de:	646e756f          	jal	a0,800eaf24 <__stack_top+0xdaf24>
800038e2:	2520                	.insn	2, 0x2520
800038e4:	0a64                	.insn	2, 0x0a64
800038e6:	0000                	.insn	2, 0x0000
800038e8:	6f636573          	csrrsi	a0,0x6f6,6
800038ec:	646e                	.insn	2, 0x646e
800038ee:	203a                	.insn	2, 0x203a
800038f0:	6c25                	.insn	2, 0x6c25
800038f2:	0a64                	.insn	2, 0x0a64
800038f4:	0000                	.insn	2, 0x0000
	...

800038f8 <__clz_tab>:
const UQItype __clz_tab[256] =
800038f8:	0100                	.insn	2, 0x0100
800038fa:	0202                	.insn	2, 0x0202
800038fc:	03030303          	lb	t1,48(t1)
80003900:	0404                	.insn	2, 0x0404
80003902:	0404                	.insn	2, 0x0404
80003904:	0404                	.insn	2, 0x0404
80003906:	0404                	.insn	2, 0x0404
80003908:	0505                	.insn	2, 0x0505
8000390a:	0505                	.insn	2, 0x0505
8000390c:	0505                	.insn	2, 0x0505
8000390e:	0505                	.insn	2, 0x0505
80003910:	0505                	.insn	2, 0x0505
80003912:	0505                	.insn	2, 0x0505
80003914:	0505                	.insn	2, 0x0505
80003916:	0505                	.insn	2, 0x0505
80003918:	0606                	.insn	2, 0x0606
8000391a:	0606                	.insn	2, 0x0606
8000391c:	0606                	.insn	2, 0x0606
8000391e:	0606                	.insn	2, 0x0606
80003920:	0606                	.insn	2, 0x0606
80003922:	0606                	.insn	2, 0x0606
80003924:	0606                	.insn	2, 0x0606
80003926:	0606                	.insn	2, 0x0606
80003928:	0606                	.insn	2, 0x0606
8000392a:	0606                	.insn	2, 0x0606
8000392c:	0606                	.insn	2, 0x0606
8000392e:	0606                	.insn	2, 0x0606
80003930:	0606                	.insn	2, 0x0606
80003932:	0606                	.insn	2, 0x0606
80003934:	0606                	.insn	2, 0x0606
80003936:	0606                	.insn	2, 0x0606
80003938:	07070707          	.insn	4, 0x07070707
8000393c:	07070707          	.insn	4, 0x07070707
80003940:	07070707          	.insn	4, 0x07070707
80003944:	07070707          	.insn	4, 0x07070707
80003948:	07070707          	.insn	4, 0x07070707
8000394c:	07070707          	.insn	4, 0x07070707
80003950:	07070707          	.insn	4, 0x07070707
80003954:	07070707          	.insn	4, 0x07070707
80003958:	07070707          	.insn	4, 0x07070707
8000395c:	07070707          	.insn	4, 0x07070707
80003960:	07070707          	.insn	4, 0x07070707
80003964:	07070707          	.insn	4, 0x07070707
80003968:	07070707          	.insn	4, 0x07070707
8000396c:	07070707          	.insn	4, 0x07070707
80003970:	07070707          	.insn	4, 0x07070707
80003974:	07070707          	.insn	4, 0x07070707
80003978:	0808                	.insn	2, 0x0808
8000397a:	0808                	.insn	2, 0x0808
8000397c:	0808                	.insn	2, 0x0808
8000397e:	0808                	.insn	2, 0x0808
80003980:	0808                	.insn	2, 0x0808
80003982:	0808                	.insn	2, 0x0808
80003984:	0808                	.insn	2, 0x0808
80003986:	0808                	.insn	2, 0x0808
80003988:	0808                	.insn	2, 0x0808
8000398a:	0808                	.insn	2, 0x0808
8000398c:	0808                	.insn	2, 0x0808
8000398e:	0808                	.insn	2, 0x0808
80003990:	0808                	.insn	2, 0x0808
80003992:	0808                	.insn	2, 0x0808
80003994:	0808                	.insn	2, 0x0808
80003996:	0808                	.insn	2, 0x0808
80003998:	0808                	.insn	2, 0x0808
8000399a:	0808                	.insn	2, 0x0808
8000399c:	0808                	.insn	2, 0x0808
8000399e:	0808                	.insn	2, 0x0808
800039a0:	0808                	.insn	2, 0x0808
800039a2:	0808                	.insn	2, 0x0808
800039a4:	0808                	.insn	2, 0x0808
800039a6:	0808                	.insn	2, 0x0808
800039a8:	0808                	.insn	2, 0x0808
800039aa:	0808                	.insn	2, 0x0808
800039ac:	0808                	.insn	2, 0x0808
800039ae:	0808                	.insn	2, 0x0808
800039b0:	0808                	.insn	2, 0x0808
800039b2:	0808                	.insn	2, 0x0808
800039b4:	0808                	.insn	2, 0x0808
800039b6:	0808                	.insn	2, 0x0808
800039b8:	0808                	.insn	2, 0x0808
800039ba:	0808                	.insn	2, 0x0808
800039bc:	0808                	.insn	2, 0x0808
800039be:	0808                	.insn	2, 0x0808
800039c0:	0808                	.insn	2, 0x0808
800039c2:	0808                	.insn	2, 0x0808
800039c4:	0808                	.insn	2, 0x0808
800039c6:	0808                	.insn	2, 0x0808
800039c8:	0808                	.insn	2, 0x0808
800039ca:	0808                	.insn	2, 0x0808
800039cc:	0808                	.insn	2, 0x0808
800039ce:	0808                	.insn	2, 0x0808
800039d0:	0808                	.insn	2, 0x0808
800039d2:	0808                	.insn	2, 0x0808
800039d4:	0808                	.insn	2, 0x0808
800039d6:	0808                	.insn	2, 0x0808
800039d8:	0808                	.insn	2, 0x0808
800039da:	0808                	.insn	2, 0x0808
800039dc:	0808                	.insn	2, 0x0808
800039de:	0808                	.insn	2, 0x0808
800039e0:	0808                	.insn	2, 0x0808
800039e2:	0808                	.insn	2, 0x0808
800039e4:	0808                	.insn	2, 0x0808
800039e6:	0808                	.insn	2, 0x0808
800039e8:	0808                	.insn	2, 0x0808
800039ea:	0808                	.insn	2, 0x0808
800039ec:	0808                	.insn	2, 0x0808
800039ee:	0808                	.insn	2, 0x0808
800039f0:	0808                	.insn	2, 0x0808
800039f2:	0808                	.insn	2, 0x0808
800039f4:	0808                	.insn	2, 0x0808
800039f6:	0808                	.insn	2, 0x0808

Disassembly of section .comment:

00000000 <.comment>:
   0:	3a434347          	.insn	4, 0x3a434347
   4:	2820                	.insn	2, 0x2820
   6:	31313567          	.insn	4, 0x31313567
   a:	6335                	.insn	2, 0x6335
   c:	34346537          	lui	a0,0x34346
  10:	31202937          	lui	s2,0x31202
  14:	2e35                	.insn	2, 0x2e35
  16:	2e32                	.insn	2, 0x2e32
  18:	0030                	.insn	2, 0x0030

Disassembly of section .riscv.attributes:

00000000 <.riscv.attributes>:
   0:	3641                	.insn	2, 0x3641
   2:	0000                	.insn	2, 0x0000
   4:	7200                	.insn	2, 0x7200
   6:	7369                	.insn	2, 0x7369
   8:	01007663          	bgeu	zero,a6,14 <_jump-0x80001fec>
   c:	002c                	.insn	2, 0x002c
   e:	0000                	.insn	2, 0x0000
  10:	1004                	.insn	2, 0x1004
  12:	7205                	.insn	2, 0x7205
  14:	3376                	.insn	2, 0x3376
  16:	6932                	.insn	2, 0x6932
  18:	7032                	.insn	2, 0x7032
  1a:	5f31                	.insn	2, 0x5f31
  1c:	326d                	.insn	2, 0x326d
  1e:	3070                	.insn	2, 0x3070
  20:	7a5f 6369 7273      	.insn	6, 0x727363697a5f
  26:	7032                	.insn	2, 0x7032
  28:	5f30                	.insn	2, 0x5f30
  2a:	6d7a                	.insn	2, 0x6d7a
  2c:	756d                	.insn	2, 0x756d
  2e:	316c                	.insn	2, 0x316c
  30:	3070                	.insn	2, 0x3070
  32:	0800                	.insn	2, 0x0800
  34:	0a01                	.insn	2, 0x0a01
  36:	0b                	.byte	0x0b

Disassembly of section .debug_info:

00000000 <.debug_info>:
   0:	084c                	.insn	2, 0x084c
   2:	0000                	.insn	2, 0x0000
   4:	0005                	.insn	2, 0x0005
   6:	0401                	.insn	2, 0x0401
   8:	0000                	.insn	2, 0x0000
   a:	0000                	.insn	2, 0x0000
   c:	3d10                	.insn	2, 0x3d10
   e:	0000                	.insn	2, 0x0000
  10:	1d00                	.insn	2, 0x1d00
  12:	03164703          	lbu	a4,49(a2) # 10031 <_jump-0x7fff1fcf>
  16:	0000                	.insn	2, 0x0000
  18:	0000                	.insn	2, 0x0000
  1a:	4200                	.insn	2, 0x4200
  1c:	0000                	.insn	2, 0x0000
  1e:	5000                	.insn	2, 0x5000
  20:	0034                	.insn	2, 0x0034
  22:	ec80                	.insn	2, 0xec80
  24:	00000003          	lb	zero,0(zero) # 0 <_jump-0x80002000>
  28:	0000                	.insn	2, 0x0000
  2a:	0400                	.insn	2, 0x0400
  2c:	0708                	.insn	2, 0x0708
  2e:	0125                	.insn	2, 0x0125
  30:	0000                	.insn	2, 0x0000
  32:	0411                	.insn	2, 0x0411
  34:	6905                	.insn	2, 0x6905
  36:	746e                	.insn	2, 0x746e
  38:	0400                	.insn	2, 0x0400
  3a:	0704                	.insn	2, 0x0704
  3c:	0000012f          	.insn	4, 0x012f
  40:	0804                	.insn	2, 0x0804
  42:	1705                	.insn	2, 0x1705
  44:	0001                	.insn	2, 0x0001
  46:	0400                	.insn	2, 0x0400
  48:	0410                	.insn	2, 0x0410
  4a:	01e2                	.insn	2, 0x01e2
  4c:	0000                	.insn	2, 0x0000
  4e:	0104                	.insn	2, 0x0104
  50:	5e06                	.insn	2, 0x5e06
  52:	0001                	.insn	2, 0x0001
  54:	0400                	.insn	2, 0x0400
  56:	0801                	.insn	2, 0x0801
  58:	015c                	.insn	2, 0x015c
  5a:	0000                	.insn	2, 0x0000
  5c:	0204                	.insn	2, 0x0204
  5e:	2105                	.insn	2, 0x2105
  60:	0000                	.insn	2, 0x0000
  62:	0400                	.insn	2, 0x0400
  64:	0702                	.insn	2, 0x0702
  66:	0186                	.insn	2, 0x0186
  68:	0000                	.insn	2, 0x0000
  6a:	0404                	.insn	2, 0x0404
  6c:	1c05                	.insn	2, 0x1c05
  6e:	0001                	.insn	2, 0x0001
  70:	0400                	.insn	2, 0x0400
  72:	0704                	.insn	2, 0x0704
  74:	012a                	.insn	2, 0x012a
  76:	0000                	.insn	2, 0x0000
  78:	0104                	.insn	2, 0x0104
  7a:	6508                	.insn	2, 0x6508
  7c:	0001                	.insn	2, 0x0001
  7e:	0400                	.insn	2, 0x0400
  80:	0201                	.insn	2, 0x0201
  82:	000001b3          	add	gp,zero,zero
  86:	00017e07          	.insn	4, 0x00017e07
  8a:	7e00                	.insn	2, 0x7e00
  8c:	5516                	.insn	2, 0x5516
  8e:	0000                	.insn	2, 0x0000
  90:	0900                	.insn	2, 0x0900
  92:	0086                	.insn	2, 0x0086
  94:	0000                	.insn	2, 0x0000
  96:	0001a207          	.insn	4, 0x0001a207
  9a:	8300                	.insn	2, 0x8300
  9c:	0000320f          	.insn	4, 0x320f
  a0:	0700                	.insn	2, 0x0700
  a2:	01a1                	.insn	2, 0x01a1
  a4:	0000                	.insn	2, 0x0000
  a6:	1684                	.insn	2, 0x1684
  a8:	0039                	.insn	2, 0x0039
  aa:	0000                	.insn	2, 0x0000
  ac:	00019a07          	.insn	4, 0x00019a07
  b0:	8700                	.insn	2, 0x8700
  b2:	0000400f          	.insn	4, 0x400f
  b6:	0700                	.insn	2, 0x0700
  b8:	0199                	.insn	2, 0x0199
  ba:	0000                	.insn	2, 0x0000
  bc:	1688                	.insn	2, 0x1688
  be:	0000002b          	.insn	4, 0x002b
  c2:	0204                	.insn	2, 0x0204
  c4:	5304                	.insn	2, 0x5304
  c6:	0001                	.insn	2, 0x0001
  c8:	0400                	.insn	2, 0x0400
  ca:	0304                	.insn	2, 0x0304
  cc:	0000014b          	.insn	4, 0x014b
  d0:	0404                	.insn	2, 0x0404
  d2:	1b04                	.insn	2, 0x1b04
  d4:	0000                	.insn	2, 0x0000
  d6:	0400                	.insn	2, 0x0400
  d8:	0308                	.insn	2, 0x0308
  da:	00000013          	nop
  de:	0804                	.insn	2, 0x0804
  e0:	e704                	.insn	2, 0xe704
  e2:	0001                	.insn	2, 0x0001
  e4:	0400                	.insn	2, 0x0400
  e6:	0310                	.insn	2, 0x0310
  e8:	01b9                	.insn	2, 0x01b9
  ea:	0000                	.insn	2, 0x0000
  ec:	2004                	.insn	2, 0x2004
  ee:	0001da03          	lhu	s4,0(gp)
  f2:	1200                	.insn	2, 0x1200
  f4:	000a                	.insn	2, 0x000a
  f6:	0000                	.insn	2, 0x0000
  f8:	0208                	.insn	2, 0x0208
  fa:	0205                	.insn	2, 0x0205
  fc:	1e0a                	.insn	2, 0x1e0a
  fe:	0001                	.insn	2, 0x0001
 100:	1300                	.insn	2, 0x1300
 102:	6f6c                	.insn	2, 0x6f6c
 104:	05020077          	.insn	4, 0x05020077
 108:	1a02                	.insn	2, 0x1a02
 10a:	0096                	.insn	2, 0x0096
 10c:	0000                	.insn	2, 0x0000
 10e:	1400                	.insn	2, 0x1400
 110:	013c                	.insn	2, 0x013c
 112:	0000                	.insn	2, 0x0000
 114:	0502                	.insn	2, 0x0502
 116:	1f02                	.insn	2, 0x1f02
 118:	0096                	.insn	2, 0x0096
 11a:	0000                	.insn	2, 0x0000
 11c:	0004                	.insn	2, 0x0004
 11e:	0815                	.insn	2, 0x0815
 120:	0c02                	.insn	2, 0x0c02
 122:	0902                	.insn	2, 0x0902
 124:	013e                	.insn	2, 0x013e
 126:	0000                	.insn	2, 0x0000
 128:	730c                	.insn	2, 0x730c
 12a:	0e00                	.insn	2, 0x0e00
 12c:	1302                	.insn	2, 0x1302
 12e:	000000f3          	.insn	4, 0x00f3
 132:	6c0c                	.insn	2, 0x6c0c
 134:	006c                	.insn	2, 0x006c
 136:	ac0a020f          	.insn	4, 0xac0a020f
 13a:	0000                	.insn	2, 0x0000
 13c:	0000                	.insn	2, 0x0000
 13e:	2b16                	.insn	2, 0x2b16
 140:	0000                	.insn	2, 0x0000
 142:	0200                	.insn	2, 0x0200
 144:	0210                	.insn	2, 0x0210
 146:	00011e03          	lh	t3,0(sp)
 14a:	0900                	.insn	2, 0x0900
 14c:	013e                	.insn	2, 0x013e
 14e:	0000                	.insn	2, 0x0000
 150:	00009117          	auipc	sp,0x9
 154:	6000                	.insn	2, 0x6000
 156:	0001                	.insn	2, 0x0001
 158:	1800                	.insn	2, 0x1800
 15a:	0039                	.insn	2, 0x0039
 15c:	0000                	.insn	2, 0x0000
 15e:	00ff 5009 0001 1900 	.insn	10, 0x014119000001500900ff
 166:	0141 
 168:	0000                	.insn	2, 0x0000
 16a:	1a02                	.insn	2, 0x1a02
 16c:	1602                	.insn	2, 0x1602
 16e:	0160                	.insn	2, 0x0160
 170:	0000                	.insn	2, 0x0000
 172:	001a                	.insn	2, 0x001a
 174:	0000                	.insn	2, 0x0000
 176:	0100                	.insn	2, 0x0100
 178:	0512                	.insn	2, 0x0512
 17a:	b701                	.insn	2, 0xb701
 17c:	0000                	.insn	2, 0x0000
 17e:	5000                	.insn	2, 0x5000
 180:	0034                	.insn	2, 0x0034
 182:	ec80                	.insn	2, 0xec80
 184:	01000003          	lb	zero,16(zero) # 10 <_jump-0x80001ff0>
 188:	1d9c                	.insn	2, 0x1d9c
 18a:	0005                	.insn	2, 0x0005
 18c:	0d00                	.insn	2, 0x0d00
 18e:	006e                	.insn	2, 0x006e
 190:	b714                	.insn	2, 0xb714
 192:	0000                	.insn	2, 0x0000
 194:	3400                	.insn	2, 0x3400
 196:	0000                	.insn	2, 0x0000
 198:	0c00                	.insn	2, 0x0c00
 19a:	0000                	.insn	2, 0x0000
 19c:	0d00                	.insn	2, 0x0d00
 19e:	0064                	.insn	2, 0x0064
 1a0:	b71f 0000 f600      	.insn	6, 0xf6000000b71f
 1a6:	0000                	.insn	2, 0x0000
 1a8:	ce00                	.insn	2, 0xce00
 1aa:	0000                	.insn	2, 0x0000
 1ac:	1b00                	.insn	2, 0x1b00
 1ae:	051d                	.insn	2, 0x051d
 1b0:	0000                	.insn	2, 0x0000
 1b2:	3450                	.insn	2, 0x3450
 1b4:	8000                	.insn	2, 0x8000
 1b6:	0c02                	.insn	2, 0x0c02
 1b8:	0000                	.insn	2, 0x0000
 1ba:	0100                	.insn	2, 0x0100
 1bc:	0514                	.insn	2, 0x0514
 1be:	0a0a                	.insn	2, 0x0a0a
 1c0:	0000052f          	.insn	4, 0x052f
 1c4:	000001ab          	.insn	4, 0x01ab
 1c8:	0192                	.insn	2, 0x0192
 1ca:	0000                	.insn	2, 0x0000
 1cc:	370a                	.insn	2, 0x370a
 1ce:	0005                	.insn	2, 0x0005
 1d0:	2700                	.insn	2, 0x2700
 1d2:	0002                	.insn	2, 0x0002
 1d4:	0a00                	.insn	2, 0x0a00
 1d6:	0002                	.insn	2, 0x0002
 1d8:	0a00                	.insn	2, 0x0a00
 1da:	0000053f 000002a1 	.insn	8, 0x02a10000053f
 1e2:	029d                	.insn	2, 0x029d
 1e4:	0000                	.insn	2, 0x0000
 1e6:	4808                	.insn	2, 0x4808
 1e8:	0005                	.insn	2, 0x0005
 1ea:	0800                	.insn	2, 0x0800
 1ec:	00000553          	.insn	4, 0x0553
 1f0:	5e08                	.insn	2, 0x5e08
 1f2:	0005                	.insn	2, 0x0005
 1f4:	0100                	.insn	2, 0x0100
 1f6:	0569                	.insn	2, 0x0569
 1f8:	0000                	.insn	2, 0x0000
 1fa:	000002d3          	.insn	4, 0x02d3
 1fe:	02b1                	.insn	2, 0x02b1
 200:	0000                	.insn	2, 0x0000
 202:	7401                	.insn	2, 0x7401
 204:	0005                	.insn	2, 0x0005
 206:	5000                	.insn	2, 0x5000
 208:	2b000003          	lb	zero,688(zero) # 2b0 <_jump-0x80001d50>
 20c:	01000003          	lb	zero,16(zero) # 10 <_jump-0x80001ff0>
 210:	057f 0000 03c2 0000 	.insn	10, 0x03a2000003c20000057f
 218:	03a2 
 21a:	0000                	.insn	2, 0x0000
 21c:	8a01                	.insn	2, 0x8a01
 21e:	0005                	.insn	2, 0x0005
 220:	3b00                	.insn	2, 0x3b00
 222:	0004                	.insn	2, 0x0004
 224:	0d00                	.insn	2, 0x0d00
 226:	0004                	.insn	2, 0x0004
 228:	0100                	.insn	2, 0x0100
 22a:	0595                	.insn	2, 0x0595
 22c:	0000                	.insn	2, 0x0000
 22e:	04a2                	.insn	2, 0x04a2
 230:	0000                	.insn	2, 0x0000
 232:	049a                	.insn	2, 0x049a
 234:	0000                	.insn	2, 0x0000
 236:	a001                	.insn	2, 0xa001
 238:	0005                	.insn	2, 0x0005
 23a:	b700                	.insn	2, 0xb700
 23c:	0004                	.insn	2, 0x0004
 23e:	b100                	.insn	2, 0xb100
 240:	0004                	.insn	2, 0x0004
 242:	0100                	.insn	2, 0x0100
 244:	000005ab          	.insn	4, 0x05ab
 248:	04d5                	.insn	2, 0x04d5
 24a:	0000                	.insn	2, 0x0000
 24c:	04c6                	.insn	2, 0x04c6
 24e:	0000                	.insn	2, 0x0000
 250:	b601                	.insn	2, 0xb601
 252:	0005                	.insn	2, 0x0005
 254:	0200                	.insn	2, 0x0200
 256:	0005                	.insn	2, 0x0005
 258:	fa00                	.insn	2, 0xfa00
 25a:	0004                	.insn	2, 0x0004
 25c:	0100                	.insn	2, 0x0100
 25e:	05c0                	.insn	2, 0x05c0
 260:	0000                	.insn	2, 0x0000
 262:	00000523          	sb	zero,10(zero) # a <_jump-0x80001ff6>
 266:	0511                	.insn	2, 0x0511
 268:	0000                	.insn	2, 0x0000
 26a:	cb08                	.insn	2, 0xcb08
 26c:	0005                	.insn	2, 0x0005
 26e:	0600                	.insn	2, 0x0600
 270:	05d6                	.insn	2, 0x05d6
 272:	0000                	.insn	2, 0x0000
 274:	0016                	.insn	2, 0x0016
 276:	0000                	.insn	2, 0x0000
 278:	00000297          	auipc	t0,0x0
 27c:	db01                	.insn	2, 0xdb01
 27e:	0005                	.insn	2, 0x0005
 280:	6d00                	.insn	2, 0x6d00
 282:	0005                	.insn	2, 0x0005
 284:	6300                	.insn	2, 0x6300
 286:	0005                	.insn	2, 0x0005
 288:	0100                	.insn	2, 0x0100
 28a:	000005e7          	jalr	a1,zero # 0 <_jump-0x80002000>
 28e:	0596                	.insn	2, 0x0596
 290:	0000                	.insn	2, 0x0000
 292:	0594                	.insn	2, 0x0594
 294:	0000                	.insn	2, 0x0000
 296:	0600                	.insn	2, 0x0600
 298:	05f4                	.insn	2, 0x05f4
 29a:	0000                	.insn	2, 0x0000
 29c:	0022                	.insn	2, 0x0022
 29e:	0000                	.insn	2, 0x0000
 2a0:	02fa                	.insn	2, 0x02fa
 2a2:	0000                	.insn	2, 0x0000
 2a4:	f901                	.insn	2, 0xf901
 2a6:	0005                	.insn	2, 0x0005
 2a8:	a000                	.insn	2, 0xa000
 2aa:	0005                	.insn	2, 0x0005
 2ac:	9c00                	.insn	2, 0x9c00
 2ae:	0005                	.insn	2, 0x0005
 2b0:	0100                	.insn	2, 0x0100
 2b2:	0605                	.insn	2, 0x0605
 2b4:	0000                	.insn	2, 0x0000
 2b6:	05b2                	.insn	2, 0x05b2
 2b8:	0000                	.insn	2, 0x0000
 2ba:	05ae                	.insn	2, 0x05ae
 2bc:	0000                	.insn	2, 0x0000
 2be:	1101                	.insn	2, 0x1101
 2c0:	0006                	.insn	2, 0x0006
 2c2:	ca00                	.insn	2, 0xca00
 2c4:	0005                	.insn	2, 0x0005
 2c6:	c000                	.insn	2, 0xc000
 2c8:	0005                	.insn	2, 0x0005
 2ca:	1c00                	.insn	2, 0x1c00
 2cc:	061d                	.insn	2, 0x061d
 2ce:	0000                	.insn	2, 0x0000
 2d0:	5c01                	.insn	2, 0x5c01
 2d2:	2901                	.insn	2, 0x2901
 2d4:	0006                	.insn	2, 0x0006
 2d6:	fb00                	.insn	2, 0xfb00
 2d8:	0005                	.insn	2, 0x0005
 2da:	f100                	.insn	2, 0xf100
 2dc:	0005                	.insn	2, 0x0005
 2de:	0100                	.insn	2, 0x0100
 2e0:	0635                	.insn	2, 0x0635
 2e2:	0000                	.insn	2, 0x0000
 2e4:	062d                	.insn	2, 0x062d
 2e6:	0000                	.insn	2, 0x0000
 2e8:	0000062b          	.insn	4, 0x062b
 2ec:	4101                	.insn	2, 0x4101
 2ee:	0006                	.insn	2, 0x0006
 2f0:	3e00                	.insn	2, 0x3e00
 2f2:	0006                	.insn	2, 0x0006
 2f4:	3a00                	.insn	2, 0x3a00
 2f6:	0006                	.insn	2, 0x0006
 2f8:	0000                	.insn	2, 0x0000
 2fa:	c606                	.insn	2, 0xc606
 2fc:	0006                	.insn	2, 0x0006
 2fe:	2c00                	.insn	2, 0x2c00
 300:	0000                	.insn	2, 0x0000
 302:	6300                	.insn	2, 0x6300
 304:	01000003          	lb	zero,16(zero) # 10 <_jump-0x80001ff0>
 308:	000006cb          	.insn	4, 0x06cb
 30c:	0654                	.insn	2, 0x0654
 30e:	0000                	.insn	2, 0x0000
 310:	064d                	.insn	2, 0x064d
 312:	0000                	.insn	2, 0x0000
 314:	d701                	.insn	2, 0xd701
 316:	0006                	.insn	2, 0x0006
 318:	6a00                	.insn	2, 0x6a00
 31a:	0006                	.insn	2, 0x0006
 31c:	6300                	.insn	2, 0x6300
 31e:	0006                	.insn	2, 0x0006
 320:	0100                	.insn	2, 0x0100
 322:	000006e3          	beqz	zero,b2e <_jump-0x800014d2>
 326:	068d                	.insn	2, 0x068d
 328:	0000                	.insn	2, 0x0000
 32a:	0679                	.insn	2, 0x0679
 32c:	0000                	.insn	2, 0x0000
 32e:	ef01                	.insn	2, 0xef01
 330:	0006                	.insn	2, 0x0006
 332:	c300                	.insn	2, 0xc300
 334:	0006                	.insn	2, 0x0006
 336:	b500                	.insn	2, 0xb500
 338:	0006                	.insn	2, 0x0006
 33a:	0100                	.insn	2, 0x0100
 33c:	000006fb          	.insn	4, 0x06fb
 340:	00000703          	lb	a4,0(zero) # 0 <_jump-0x80002000>
 344:	06ed                	.insn	2, 0x06ed
 346:	0000                	.insn	2, 0x0000
 348:	0701                	.insn	2, 0x0701
 34a:	4b000007          	.insn	4, 0x4b000007
 34e:	3d000007          	.insn	4, 0x3d000007
 352:	01000007          	.insn	4, 0x01000007
 356:	00000713          	li	a4,0
 35a:	00000787          	.insn	4, 0x0787
 35e:	0779                	.insn	2, 0x0779
 360:	0000                	.insn	2, 0x0000
 362:	0600                	.insn	2, 0x0600
 364:	064e                	.insn	2, 0x064e
 366:	0000                	.insn	2, 0x0000
 368:	003c                	.insn	2, 0x003c
 36a:	0000                	.insn	2, 0x0000
 36c:	0000038b          	.insn	4, 0x038b
 370:	5301                	.insn	2, 0x5301
 372:	0006                	.insn	2, 0x0006
 374:	aa00                	.insn	2, 0xaa00
 376:	a4000007          	.insn	4, 0xa4000007
 37a:	01000007          	.insn	4, 0x01000007
 37e:	065f 0000 07bb      	.insn	6, 0x07bb0000065f
 384:	0000                	.insn	2, 0x0000
 386:	07b9                	.insn	2, 0x07b9
 388:	0000                	.insn	2, 0x0000
 38a:	0600                	.insn	2, 0x0600
 38c:	066c                	.insn	2, 0x066c
 38e:	0000                	.insn	2, 0x0000
 390:	004c                	.insn	2, 0x004c
 392:	0000                	.insn	2, 0x0000
 394:	03f4                	.insn	2, 0x03f4
 396:	0000                	.insn	2, 0x0000
 398:	7101                	.insn	2, 0x7101
 39a:	0006                	.insn	2, 0x0006
 39c:	c700                	.insn	2, 0xc700
 39e:	c3000007          	.insn	4, 0xc3000007
 3a2:	01000007          	.insn	4, 0x01000007
 3a6:	067d                	.insn	2, 0x067d
 3a8:	0000                	.insn	2, 0x0000
 3aa:	07df 0000 07cf      	.insn	6, 0x07cf000007df
 3b0:	0000                	.insn	2, 0x0000
 3b2:	8901                	.insn	2, 0x8901
 3b4:	0006                	.insn	2, 0x0006
 3b6:	1c00                	.insn	2, 0x1c00
 3b8:	0008                	.insn	2, 0x0008
 3ba:	0800                	.insn	2, 0x0800
 3bc:	0008                	.insn	2, 0x0008
 3be:	0100                	.insn	2, 0x0100
 3c0:	0695                	.insn	2, 0x0695
 3c2:	0000                	.insn	2, 0x0000
 3c4:	0858                	.insn	2, 0x0858
 3c6:	0000                	.insn	2, 0x0000
 3c8:	0844                	.insn	2, 0x0844
 3ca:	0000                	.insn	2, 0x0000
 3cc:	a101                	.insn	2, 0xa101
 3ce:	0006                	.insn	2, 0x0006
 3d0:	9400                	.insn	2, 0x9400
 3d2:	0008                	.insn	2, 0x0008
 3d4:	8000                	.insn	2, 0x8000
 3d6:	0008                	.insn	2, 0x0008
 3d8:	0100                	.insn	2, 0x0100
 3da:	06ad                	.insn	2, 0x06ad
 3dc:	0000                	.insn	2, 0x0000
 3de:	000008db          	.insn	4, 0x08db
 3e2:	000008c7          	.insn	4, 0x08c7
 3e6:	b901                	.insn	2, 0xb901
 3e8:	0006                	.insn	2, 0x0006
 3ea:	1400                	.insn	2, 0x1400
 3ec:	0009                	.insn	2, 0x0009
 3ee:	0400                	.insn	2, 0x0400
 3f0:	0009                	.insn	2, 0x0009
 3f2:	0000                	.insn	2, 0x0000
 3f4:	2006                	.insn	2, 0x2006
 3f6:	57000007          	.insn	4, 0x57000007
 3fa:	0000                	.insn	2, 0x0000
 3fc:	1c00                	.insn	2, 0x1c00
 3fe:	0004                	.insn	2, 0x0004
 400:	0100                	.insn	2, 0x0100
 402:	0725                	.insn	2, 0x0725
 404:	0000                	.insn	2, 0x0000
 406:	093d                	.insn	2, 0x093d
 408:	0000                	.insn	2, 0x0000
 40a:	0931                	.insn	2, 0x0931
 40c:	0000                	.insn	2, 0x0000
 40e:	3101                	.insn	2, 0x3101
 410:	5b000007          	.insn	4, 0x5b000007
 414:	0009                	.insn	2, 0x0009
 416:	5300                	.insn	2, 0x5300
 418:	0009                	.insn	2, 0x0009
 41a:	0000                	.insn	2, 0x0000
 41c:	500e                	.insn	2, 0x500e
 41e:	67000007          	.insn	4, 0x67000007
 422:	0000                	.insn	2, 0x0000
 424:	0100                	.insn	2, 0x0100
 426:	0751                	.insn	2, 0x0751
 428:	0000                	.insn	2, 0x0000
 42a:	096e                	.insn	2, 0x096e
 42c:	0000                	.insn	2, 0x0000
 42e:	096a                	.insn	2, 0x096a
 430:	0000                	.insn	2, 0x0000
 432:	5c01                	.insn	2, 0x5c01
 434:	7a000007          	.insn	4, 0x7a000007
 438:	0009                	.insn	2, 0x0009
 43a:	7600                	.insn	2, 0x7600
 43c:	0009                	.insn	2, 0x0009
 43e:	0600                	.insn	2, 0x0600
 440:	00000767          	jalr	a4,zero # 0 <_jump-0x80002000>
 444:	00000077          	.insn	4, 0x0077
 448:	04a8                	.insn	2, 0x04a8
 44a:	0000                	.insn	2, 0x0000
 44c:	6c01                	.insn	2, 0x6c01
 44e:	99000007          	.insn	4, 0x99000007
 452:	0009                	.insn	2, 0x0009
 454:	9100                	.insn	2, 0x9100
 456:	0009                	.insn	2, 0x0009
 458:	0100                	.insn	2, 0x0100
 45a:	0778                	.insn	2, 0x0778
 45c:	0000                	.insn	2, 0x0000
 45e:	09b8                	.insn	2, 0x09b8
 460:	0000                	.insn	2, 0x0000
 462:	09a8                	.insn	2, 0x09a8
 464:	0000                	.insn	2, 0x0000
 466:	8401                	.insn	2, 0x8401
 468:	f5000007          	.insn	4, 0xf5000007
 46c:	0009                	.insn	2, 0x0009
 46e:	e100                	.insn	2, 0xe100
 470:	0009                	.insn	2, 0x0009
 472:	0100                	.insn	2, 0x0100
 474:	0790                	.insn	2, 0x0790
 476:	0000                	.insn	2, 0x0000
 478:	0a31                	.insn	2, 0x0a31
 47a:	0000                	.insn	2, 0x0000
 47c:	0a1d                	.insn	2, 0x0a1d
 47e:	0000                	.insn	2, 0x0000
 480:	9c01                	.insn	2, 0x9c01
 482:	6d000007          	.insn	4, 0x6d000007
 486:	000a                	.insn	2, 0x000a
 488:	5900                	.insn	2, 0x5900
 48a:	000a                	.insn	2, 0x000a
 48c:	0100                	.insn	2, 0x0100
 48e:	07a8                	.insn	2, 0x07a8
 490:	0000                	.insn	2, 0x0000
 492:	0ab0                	.insn	2, 0x0ab0
 494:	0000                	.insn	2, 0x0000
 496:	0aa0                	.insn	2, 0x0aa0
 498:	0000                	.insn	2, 0x0000
 49a:	b401                	.insn	2, 0xb401
 49c:	e2000007          	.insn	4, 0xe2000007
 4a0:	000a                	.insn	2, 0x000a
 4a2:	d200                	.insn	2, 0xd200
 4a4:	000a                	.insn	2, 0x000a
 4a6:	0000                	.insn	2, 0x0000
 4a8:	c10e                	.insn	2, 0xc10e
 4aa:	8c000007          	.insn	4, 0x8c000007
 4ae:	0000                	.insn	2, 0x0000
 4b0:	0100                	.insn	2, 0x0100
 4b2:	07c6                	.insn	2, 0x07c6
 4b4:	0000                	.insn	2, 0x0000
 4b6:	00000b03          	lb	s6,0(zero) # 0 <_jump-0x80002000>
 4ba:	0aff 0000 d201 0007 	.insn	10, 0x17000007d20100000aff
 4c2:	1700 
 4c4:	0b00000b          	.insn	4, 0x0b00000b
 4c8:	0100000b          	.insn	4, 0x0100000b
 4cc:	07de                	.insn	2, 0x07de
 4ce:	0000                	.insn	2, 0x0000
 4d0:	0b36                	.insn	2, 0x0b36
 4d2:	0000                	.insn	2, 0x0000
 4d4:	0b32                	.insn	2, 0x0b32
 4d6:	0000                	.insn	2, 0x0000
 4d8:	ea01                	.insn	2, 0xea01
 4da:	42000007          	.insn	4, 0x42000007
 4de:	3e00000b          	.insn	4, 0x3e00000b
 4e2:	0100000b          	.insn	4, 0x0100000b
 4e6:	07f6                	.insn	2, 0x07f6
 4e8:	0000                	.insn	2, 0x0000
 4ea:	0b4e                	.insn	2, 0x0b4e
 4ec:	0000                	.insn	2, 0x0000
 4ee:	0b4a                	.insn	2, 0x0b4a
 4f0:	0000                	.insn	2, 0x0000
 4f2:	0201                	.insn	2, 0x0201
 4f4:	0008                	.insn	2, 0x0008
 4f6:	5a00                	.insn	2, 0x5a00
 4f8:	5600000b          	.insn	4, 0x5600000b
 4fc:	0100000b          	.insn	4, 0x0100000b
 500:	080e                	.insn	2, 0x080e
 502:	0000                	.insn	2, 0x0000
 504:	0b6e                	.insn	2, 0x0b6e
 506:	0000                	.insn	2, 0x0000
 508:	0b62                	.insn	2, 0x0b62
 50a:	0000                	.insn	2, 0x0000
 50c:	1a01                	.insn	2, 0x1a01
 50e:	0008                	.insn	2, 0x0008
 510:	9000                	.insn	2, 0x9000
 512:	8c00000b          	.insn	4, 0x8c00000b
 516:	0000000b          	.insn	4, 0x000b
 51a:	0000                	.insn	2, 0x0000
 51c:	1d00                	.insn	2, 0x1d00
 51e:	01cd                	.insn	2, 0x01cd
 520:	0000                	.insn	2, 0x0000
 522:	e301                	.insn	2, 0xe301
 524:	00b70103          	lb	sp,11(a4) # 100000b <_jump-0x7f001ff5>
 528:	0000                	.insn	2, 0x0000
 52a:	00084903          	lbu	s2,0(a6)
 52e:	0b00                	.insn	2, 0x0b00
 530:	006e                	.insn	2, 0x006e
 532:	0000b717          	auipc	a4,0xb
 536:	0b00                	.insn	2, 0x0b00
 538:	0064                	.insn	2, 0x0064
 53a:	b722                	.insn	2, 0xb722
 53c:	0000                	.insn	2, 0x0000
 53e:	0b00                	.insn	2, 0x0b00
 540:	7072                	.insn	2, 0x7072
 542:	2e00                	.insn	2, 0x2e00
 544:	0849                	.insn	2, 0x0849
 546:	0000                	.insn	2, 0x0000
 548:	006e6e03          	.insn	4, 0x006e6e03
 54c:	03e5                	.insn	2, 0x03e5
 54e:	4b11                	.insn	2, 0x4b11
 550:	0001                	.insn	2, 0x0001
 552:	0300                	.insn	2, 0x0300
 554:	6464                	.insn	2, 0x6464
 556:	e600                	.insn	2, 0xe600
 558:	014b1103          	lh	sp,20(s6)
 55c:	0000                	.insn	2, 0x0000
 55e:	00727203          	.insn	4, 0x00727203
 562:	3e0b03e7          	jalr	t2,992(s6)
 566:	0001                	.insn	2, 0x0001
 568:	0300                	.insn	2, 0x0300
 56a:	3064                	.insn	2, 0x3064
 56c:	e800                	.insn	2, 0xe800
 56e:	00a10a03          	lb	s4,10(sp) # 915a <_jump-0x7fff8ea6>
 572:	0000                	.insn	2, 0x0000
 574:	00316403          	.insn	4, 0x00316403
 578:	03e8                	.insn	2, 0x03e8
 57a:	a10e                	.insn	2, 0xa10e
 57c:	0000                	.insn	2, 0x0000
 57e:	0300                	.insn	2, 0x0300
 580:	306e                	.insn	2, 0x306e
 582:	e800                	.insn	2, 0xe800
 584:	00a11203          	lh	tp,10(sp)
 588:	0000                	.insn	2, 0x0000
 58a:	00316e03          	.insn	4, 0x00316e03
 58e:	03e8                	.insn	2, 0x03e8
 590:	a116                	.insn	2, 0xa116
 592:	0000                	.insn	2, 0x0000
 594:	0300                	.insn	2, 0x0300
 596:	326e                	.insn	2, 0x326e
 598:	e800                	.insn	2, 0xe800
 59a:	00a11a03          	lh	s4,10(sp)
 59e:	0000                	.insn	2, 0x0000
 5a0:	00307103          	.insn	4, 0x00307103
 5a4:	03e9                	.insn	2, 0x03e9
 5a6:	a10a                	.insn	2, 0xa10a
 5a8:	0000                	.insn	2, 0x0000
 5aa:	0300                	.insn	2, 0x0300
 5ac:	3171                	.insn	2, 0x3171
 5ae:	e900                	.insn	2, 0xe900
 5b0:	00a10e03          	lb	t3,10(sp)
 5b4:	0000                	.insn	2, 0x0000
 5b6:	ea006203          	.insn	4, 0xea006203
 5ba:	00a10a03          	lb	s4,10(sp)
 5be:	0000                	.insn	2, 0x0000
 5c0:	006d6203          	.insn	4, 0x006d6203
 5c4:	03ea                	.insn	2, 0x03ea
 5c6:	a10d                	.insn	2, 0xa10d
 5c8:	0000                	.insn	2, 0x0000
 5ca:	0300                	.insn	2, 0x0300
 5cc:	b3007777          	.insn	4, 0xb3007777
 5d0:	1104                	.insn	2, 0x1104
 5d2:	0000014b          	.insn	4, 0x014b
 5d6:	f405                	.insn	2, 0xf405
 5d8:	0005                	.insn	2, 0x0005
 5da:	0200                	.insn	2, 0x0200
 5dc:	01c8                	.insn	2, 0x01c8
 5de:	0000                	.insn	2, 0x0000
 5e0:	041a                	.insn	2, 0x041a
 5e2:	a104                	.insn	2, 0xa104
 5e4:	0000                	.insn	2, 0x0000
 5e6:	0300                	.insn	2, 0x0300
 5e8:	5f5f 0061 041a      	.insn	6, 0x041a00615f5f
 5ee:	a104                	.insn	2, 0xa104
 5f0:	0000                	.insn	2, 0x0000
 5f2:	0000                	.insn	2, 0x0000
 5f4:	4e05                	.insn	2, 0x4e05
 5f6:	0006                	.insn	2, 0x0006
 5f8:	0200                	.insn	2, 0x0200
 5fa:	0038                	.insn	2, 0x0038
 5fc:	0000                	.insn	2, 0x0000
 5fe:	0426                	.insn	2, 0x0426
 600:	a104                	.insn	2, 0xa104
 602:	0000                	.insn	2, 0x0000
 604:	0200                	.insn	2, 0x0200
 606:	00000033          	add	zero,zero,zero
 60a:	0426                	.insn	2, 0x0426
 60c:	a104                	.insn	2, 0xa104
 60e:	0000                	.insn	2, 0x0000
 610:	0200                	.insn	2, 0x0200
 612:	01ae                	.insn	2, 0x01ae
 614:	0000                	.insn	2, 0x0000
 616:	0426                	.insn	2, 0x0426
 618:	a104                	.insn	2, 0xa104
 61a:	0000                	.insn	2, 0x0000
 61c:	0200                	.insn	2, 0x0200
 61e:	01a9                	.insn	2, 0x01a9
 620:	0000                	.insn	2, 0x0000
 622:	0426                	.insn	2, 0x0426
 624:	a104                	.insn	2, 0xa104
 626:	0000                	.insn	2, 0x0000
 628:	0200                	.insn	2, 0x0200
 62a:	000001f3          	.insn	4, 0x01f3
 62e:	0426                	.insn	2, 0x0426
 630:	a104                	.insn	2, 0xa104
 632:	0000                	.insn	2, 0x0000
 634:	0200                	.insn	2, 0x0200
 636:	01ee                	.insn	2, 0x01ee
 638:	0000                	.insn	2, 0x0000
 63a:	0426                	.insn	2, 0x0426
 63c:	a104                	.insn	2, 0xa104
 63e:	0000                	.insn	2, 0x0000
 640:	0300                	.insn	2, 0x0300
 642:	5f5f 006d 0426      	.insn	6, 0x0426006d5f5f
 648:	a104                	.insn	2, 0xa104
 64a:	0000                	.insn	2, 0x0000
 64c:	0000                	.insn	2, 0x0000
 64e:	6c05                	.insn	2, 0x6c05
 650:	0006                	.insn	2, 0x0006
 652:	0200                	.insn	2, 0x0200
 654:	01c8                	.insn	2, 0x01c8
 656:	0000                	.insn	2, 0x0000
 658:	0432                	.insn	2, 0x0432
 65a:	a104                	.insn	2, 0xa104
 65c:	0000                	.insn	2, 0x0000
 65e:	0300                	.insn	2, 0x0300
 660:	5f5f 0061 0432      	.insn	6, 0x043200615f5f
 666:	a104                	.insn	2, 0xa104
 668:	0000                	.insn	2, 0x0000
 66a:	0000                	.insn	2, 0x0000
 66c:	c605                	.insn	2, 0xc605
 66e:	0006                	.insn	2, 0x0006
 670:	0200                	.insn	2, 0x0200
 672:	0038                	.insn	2, 0x0038
 674:	0000                	.insn	2, 0x0000
 676:	a108044b          	.insn	4, 0xa108044b
 67a:	0000                	.insn	2, 0x0000
 67c:	0200                	.insn	2, 0x0200
 67e:	00000033          	add	zero,zero,zero
 682:	a108044b          	.insn	4, 0xa108044b
 686:	0000                	.insn	2, 0x0000
 688:	0200                	.insn	2, 0x0200
 68a:	01ae                	.insn	2, 0x01ae
 68c:	0000                	.insn	2, 0x0000
 68e:	a108044b          	.insn	4, 0xa108044b
 692:	0000                	.insn	2, 0x0000
 694:	0200                	.insn	2, 0x0200
 696:	01a9                	.insn	2, 0x01a9
 698:	0000                	.insn	2, 0x0000
 69a:	a108044b          	.insn	4, 0xa108044b
 69e:	0000                	.insn	2, 0x0000
 6a0:	0200                	.insn	2, 0x0200
 6a2:	000001f3          	.insn	4, 0x01f3
 6a6:	a108044b          	.insn	4, 0xa108044b
 6aa:	0000                	.insn	2, 0x0000
 6ac:	0200                	.insn	2, 0x0200
 6ae:	01ee                	.insn	2, 0x01ee
 6b0:	0000                	.insn	2, 0x0000
 6b2:	a108044b          	.insn	4, 0xa108044b
 6b6:	0000                	.insn	2, 0x0000
 6b8:	0300                	.insn	2, 0x0300
 6ba:	5f5f 006d 044b      	.insn	6, 0x044b006d5f5f
 6c0:	a108                	.insn	2, 0xa108
 6c2:	0000                	.insn	2, 0x0000
 6c4:	0000                	.insn	2, 0x0000
 6c6:	2005                	.insn	2, 0x2005
 6c8:	02000007          	.insn	4, 0x02000007
 6cc:	0038                	.insn	2, 0x0038
 6ce:	0000                	.insn	2, 0x0000
 6d0:	0450                	.insn	2, 0x0450
 6d2:	a104                	.insn	2, 0xa104
 6d4:	0000                	.insn	2, 0x0000
 6d6:	0200                	.insn	2, 0x0200
 6d8:	00000033          	add	zero,zero,zero
 6dc:	0450                	.insn	2, 0x0450
 6de:	a104                	.insn	2, 0xa104
 6e0:	0000                	.insn	2, 0x0000
 6e2:	0200                	.insn	2, 0x0200
 6e4:	01ae                	.insn	2, 0x01ae
 6e6:	0000                	.insn	2, 0x0000
 6e8:	0450                	.insn	2, 0x0450
 6ea:	a104                	.insn	2, 0xa104
 6ec:	0000                	.insn	2, 0x0000
 6ee:	0200                	.insn	2, 0x0200
 6f0:	01a9                	.insn	2, 0x01a9
 6f2:	0000                	.insn	2, 0x0000
 6f4:	0450                	.insn	2, 0x0450
 6f6:	a104                	.insn	2, 0xa104
 6f8:	0000                	.insn	2, 0x0000
 6fa:	0200                	.insn	2, 0x0200
 6fc:	000001f3          	.insn	4, 0x01f3
 700:	0450                	.insn	2, 0x0450
 702:	a104                	.insn	2, 0xa104
 704:	0000                	.insn	2, 0x0000
 706:	0200                	.insn	2, 0x0200
 708:	01ee                	.insn	2, 0x01ee
 70a:	0000                	.insn	2, 0x0000
 70c:	0450                	.insn	2, 0x0450
 70e:	a104                	.insn	2, 0xa104
 710:	0000                	.insn	2, 0x0000
 712:	0300                	.insn	2, 0x0300
 714:	5f5f 006d 0450      	.insn	6, 0x0450006d5f5f
 71a:	a104                	.insn	2, 0xa104
 71c:	0000                	.insn	2, 0x0000
 71e:	0000                	.insn	2, 0x0000
 720:	3e05                	.insn	2, 0x3e05
 722:	02000007          	.insn	4, 0x02000007
 726:	01c8                	.insn	2, 0x01c8
 728:	0000                	.insn	2, 0x0000
 72a:	a1040473          	.insn	4, 0xa1040473
 72e:	0000                	.insn	2, 0x0000
 730:	0300                	.insn	2, 0x0300
 732:	5f5f 0061 0473      	.insn	6, 0x047300615f5f
 738:	a104                	.insn	2, 0xa104
 73a:	0000                	.insn	2, 0x0000
 73c:	0000                	.insn	2, 0x0000
 73e:	5005                	.insn	2, 0x5005
 740:	03000007          	.insn	4, 0x03000007
 744:	5f5f 0078 0481      	.insn	6, 0x048100785f5f
 74a:	a105                	.insn	2, 0xa105
 74c:	0000                	.insn	2, 0x0000
 74e:	0000                	.insn	2, 0x0000
 750:	316d030f          	.insn	4, 0x316d030f
 754:	9100                	.insn	2, 0x9100
 756:	0f04                	.insn	2, 0x0f04
 758:	00a1                	.insn	2, 0x00a1
 75a:	0000                	.insn	2, 0x0000
 75c:	00306d03          	.insn	4, 0x00306d03
 760:	0491                	.insn	2, 0x0491
 762:	0000a113          	slti	sp,ra,0
 766:	0500                	.insn	2, 0x0500
 768:	07c1                	.insn	2, 0x07c1
 76a:	0000                	.insn	2, 0x0000
 76c:	3802                	.insn	2, 0x3802
 76e:	0000                	.insn	2, 0x0000
 770:	9c00                	.insn	2, 0x9c00
 772:	0804                	.insn	2, 0x0804
 774:	00a1                	.insn	2, 0x00a1
 776:	0000                	.insn	2, 0x0000
 778:	3302                	.insn	2, 0x3302
 77a:	0000                	.insn	2, 0x0000
 77c:	9c00                	.insn	2, 0x9c00
 77e:	0804                	.insn	2, 0x0804
 780:	00a1                	.insn	2, 0x00a1
 782:	0000                	.insn	2, 0x0000
 784:	ae02                	.insn	2, 0xae02
 786:	0001                	.insn	2, 0x0001
 788:	9c00                	.insn	2, 0x9c00
 78a:	0804                	.insn	2, 0x0804
 78c:	00a1                	.insn	2, 0x00a1
 78e:	0000                	.insn	2, 0x0000
 790:	a902                	.insn	2, 0xa902
 792:	0001                	.insn	2, 0x0001
 794:	9c00                	.insn	2, 0x9c00
 796:	0804                	.insn	2, 0x0804
 798:	00a1                	.insn	2, 0x00a1
 79a:	0000                	.insn	2, 0x0000
 79c:	f302                	.insn	2, 0xf302
 79e:	0001                	.insn	2, 0x0001
 7a0:	9c00                	.insn	2, 0x9c00
 7a2:	0804                	.insn	2, 0x0804
 7a4:	00a1                	.insn	2, 0x00a1
 7a6:	0000                	.insn	2, 0x0000
 7a8:	ee02                	.insn	2, 0xee02
 7aa:	0001                	.insn	2, 0x0001
 7ac:	9c00                	.insn	2, 0x9c00
 7ae:	0804                	.insn	2, 0x0804
 7b0:	00a1                	.insn	2, 0x00a1
 7b2:	0000                	.insn	2, 0x0000
 7b4:	6d5f5f03          	lhu	t5,1749(t5)
 7b8:	9c00                	.insn	2, 0x9c00
 7ba:	0804                	.insn	2, 0x0804
 7bc:	00a1                	.insn	2, 0x00a1
 7be:	0000                	.insn	2, 0x0000
 7c0:	0500                	.insn	2, 0x0500
 7c2:	00000827          	.insn	4, 0x0827
 7c6:	6a02                	.insn	2, 0x6a02
 7c8:	0001                	.insn	2, 0x0001
 7ca:	9d00                	.insn	2, 0x9d00
 7cc:	0804                	.insn	2, 0x0804
 7ce:	00a1                	.insn	2, 0x00a1
 7d0:	0000                	.insn	2, 0x0000
 7d2:	6f02                	.insn	2, 0x6f02
 7d4:	0001                	.insn	2, 0x0001
 7d6:	9d00                	.insn	2, 0x9d00
 7d8:	0804                	.insn	2, 0x0804
 7da:	00a1                	.insn	2, 0x00a1
 7dc:	0000                	.insn	2, 0x0000
 7de:	7402                	.insn	2, 0x7402
 7e0:	0001                	.insn	2, 0x0001
 7e2:	9d00                	.insn	2, 0x9d00
 7e4:	0804                	.insn	2, 0x0804
 7e6:	00a1                	.insn	2, 0x00a1
 7e8:	0000                	.insn	2, 0x0000
 7ea:	7902                	.insn	2, 0x7902
 7ec:	0001                	.insn	2, 0x0001
 7ee:	9d00                	.insn	2, 0x9d00
 7f0:	0804                	.insn	2, 0x0804
 7f2:	00a1                	.insn	2, 0x00a1
 7f4:	0000                	.insn	2, 0x0000
 7f6:	fd02                	.insn	2, 0xfd02
 7f8:	0001                	.insn	2, 0x0001
 7fa:	9d00                	.insn	2, 0x9d00
 7fc:	0804                	.insn	2, 0x0804
 7fe:	00a1                	.insn	2, 0x00a1
 800:	0000                	.insn	2, 0x0000
 802:	1202                	.insn	2, 0x1202
 804:	0001                	.insn	2, 0x0001
 806:	9d00                	.insn	2, 0x9d00
 808:	0804                	.insn	2, 0x0804
 80a:	00a1                	.insn	2, 0x00a1
 80c:	0000                	.insn	2, 0x0000
 80e:	f802                	.insn	2, 0xf802
 810:	0001                	.insn	2, 0x0001
 812:	9d00                	.insn	2, 0x9d00
 814:	0804                	.insn	2, 0x0804
 816:	00a1                	.insn	2, 0x00a1
 818:	0000                	.insn	2, 0x0000
 81a:	0d02                	.insn	2, 0x0d02
 81c:	0001                	.insn	2, 0x0001
 81e:	9d00                	.insn	2, 0x9d00
 820:	0804                	.insn	2, 0x0804
 822:	00a1                	.insn	2, 0x00a1
 824:	0000                	.insn	2, 0x0000
 826:	0500                	.insn	2, 0x0500
 828:	0839                	.insn	2, 0x0839
 82a:	0000                	.insn	2, 0x0000
 82c:	785f5f03          	lhu	t5,1925(t5)
 830:	a200                	.insn	2, 0xa200
 832:	0504                	.insn	2, 0x0504
 834:	00a1                	.insn	2, 0x00a1
 836:	0000                	.insn	2, 0x0000
 838:	0f00                	.insn	2, 0x0f00
 83a:	785f5f03          	lhu	t5,1925(t5)
 83e:	aa00                	.insn	2, 0xaa00
 840:	0504                	.insn	2, 0x0504
 842:	00a1                	.insn	2, 0x00a1
 844:	0000                	.insn	2, 0x0000
 846:	0000                	.insn	2, 0x0000
 848:	1e00                	.insn	2, 0x1e00
 84a:	b704                	.insn	2, 0xb704
 84c:	0000                	.insn	2, 0x0000
 84e:	0000                	.insn	2, 0x0000
 850:	00ee                	.insn	2, 0x00ee
 852:	0000                	.insn	2, 0x0000
 854:	0005                	.insn	2, 0x0005
 856:	0401                	.insn	2, 0x0401
 858:	01ad                	.insn	2, 0x01ad
 85a:	0000                	.insn	2, 0x0000
 85c:	00020203          	lb	tp,0(tp) # 0 <_jump-0x80002000>
 860:	1d00                	.insn	2, 0x1d00
 862:	03164703          	lbu	a4,49(a2)
 866:	0000                	.insn	2, 0x0000
 868:	0000                	.insn	2, 0x0000
 86a:	4200                	.insn	2, 0x4200
 86c:	0000                	.insn	2, 0x0000
 86e:	2700                	.insn	2, 0x2700
 870:	0400000b          	.insn	4, 0x0400000b
 874:	0504                	.insn	2, 0x0504
 876:	6e69                	.insn	2, 0x6e69
 878:	0074                	.insn	2, 0x0074
 87a:	0401                	.insn	2, 0x0401
 87c:	00012f07          	.insn	4, 0x00012f07
 880:	0100                	.insn	2, 0x0100
 882:	0508                	.insn	2, 0x0508
 884:	00000117          	auipc	sp,0x0
 888:	1001                	.insn	2, 0x1001
 88a:	e204                	.insn	2, 0xe204
 88c:	0001                	.insn	2, 0x0001
 88e:	0100                	.insn	2, 0x0100
 890:	0601                	.insn	2, 0x0601
 892:	015e                	.insn	2, 0x015e
 894:	0000                	.insn	2, 0x0000
 896:	0101                	.insn	2, 0x0101
 898:	5c08                	.insn	2, 0x5c08
 89a:	0001                	.insn	2, 0x0001
 89c:	0100                	.insn	2, 0x0100
 89e:	0502                	.insn	2, 0x0502
 8a0:	0021                	.insn	2, 0x0021
 8a2:	0000                	.insn	2, 0x0000
 8a4:	0201                	.insn	2, 0x0201
 8a6:	00018607          	.insn	4, 0x00018607
 8aa:	0100                	.insn	2, 0x0100
 8ac:	0504                	.insn	2, 0x0504
 8ae:	011c                	.insn	2, 0x011c
 8b0:	0000                	.insn	2, 0x0000
 8b2:	0401                	.insn	2, 0x0401
 8b4:	00012a07          	.insn	4, 0x00012a07
 8b8:	0100                	.insn	2, 0x0100
 8ba:	0708                	.insn	2, 0x0708
 8bc:	0125                	.insn	2, 0x0125
 8be:	0000                	.insn	2, 0x0000
 8c0:	0101                	.insn	2, 0x0101
 8c2:	6508                	.insn	2, 0x6508
 8c4:	0001                	.insn	2, 0x0001
 8c6:	0100                	.insn	2, 0x0100
 8c8:	0201                	.insn	2, 0x0201
 8ca:	000001b3          	add	gp,zero,zero
 8ce:	7e05                	.insn	2, 0x7e05
 8d0:	0001                	.insn	2, 0x0001
 8d2:	0200                	.insn	2, 0x0200
 8d4:	167e                	.insn	2, 0x167e
 8d6:	0046                	.insn	2, 0x0046
 8d8:	0000                	.insn	2, 0x0000
 8da:	7e02                	.insn	2, 0x7e02
 8dc:	0000                	.insn	2, 0x0000
 8de:	0100                	.insn	2, 0x0100
 8e0:	0402                	.insn	2, 0x0402
 8e2:	00000153          	.insn	4, 0x0153
 8e6:	0401                	.insn	2, 0x0401
 8e8:	00014b03          	lbu	s6,0(sp) # 884 <_jump-0x8000177c>
 8ec:	0100                	.insn	2, 0x0100
 8ee:	0404                	.insn	2, 0x0404
 8f0:	0000001b          	.insn	4, 0x001b
 8f4:	0801                	.insn	2, 0x0801
 8f6:	00001303          	lh	t1,0(zero) # 0 <_jump-0x80002000>
 8fa:	0100                	.insn	2, 0x0100
 8fc:	0408                	.insn	2, 0x0408
 8fe:	000001e7          	jalr	gp,zero # 0 <_jump-0x80002000>
 902:	1001                	.insn	2, 0x1001
 904:	0001b903          	.insn	4, 0x0001b903
 908:	0100                	.insn	2, 0x0100
 90a:	0320                	.insn	2, 0x0320
 90c:	01da                	.insn	2, 0x01da
 90e:	0000                	.insn	2, 0x0000
 910:	8a06                	.insn	2, 0x8a06
 912:	0000                	.insn	2, 0x0000
 914:	d000                	.insn	2, 0xd000
 916:	0000                	.insn	2, 0x0000
 918:	0700                	.insn	2, 0x0700
 91a:	002a                	.insn	2, 0x002a
 91c:	0000                	.insn	2, 0x0000
 91e:	00ff c002 0000 0800 	.insn	10, 0x014108000000c00200ff
 926:	0141 
 928:	0000                	.insn	2, 0x0000
 92a:	1a02                	.insn	2, 0x1a02
 92c:	1602                	.insn	2, 0x1602
 92e:	00d0                	.insn	2, 0x00d0
 930:	0000                	.insn	2, 0x0000
 932:	d509                	.insn	2, 0xd509
 934:	0000                	.insn	2, 0x0000
 936:	0100                	.insn	2, 0x0100
 938:	029e                	.insn	2, 0x029e
 93a:	f803050f          	.insn	4, 0xf803050f
 93e:	0038                	.insn	2, 0x0038
 940:	0080                	.insn	2, 0x0080

Disassembly of section .debug_abbrev:

00000000 <.debug_abbrev>:
   0:	3401                	.insn	2, 0x3401
   2:	3100                	.insn	2, 0x3100
   4:	b7170213          	addi	tp,a4,-1167 # b0a3 <_jump-0x7fff6f5d>
   8:	1742                	.insn	2, 0x1742
   a:	0000                	.insn	2, 0x0000
   c:	3402                	.insn	2, 0x3402
   e:	0300                	.insn	2, 0x0300
  10:	3a0e                	.insn	2, 0x3a0e
  12:	0121                	.insn	2, 0x0121
  14:	0b39053b          	.insn	4, 0x0b39053b
  18:	1349                	.insn	2, 0x1349
  1a:	0000                	.insn	2, 0x0000
  1c:	03003403          	.insn	4, 0x03003403
  20:	3a08                	.insn	2, 0x3a08
  22:	0121                	.insn	2, 0x0121
  24:	0b39053b          	.insn	4, 0x0b39053b
  28:	1349                	.insn	2, 0x1349
  2a:	0000                	.insn	2, 0x0000
  2c:	2404                	.insn	2, 0x2404
  2e:	0b00                	.insn	2, 0x0b00
  30:	030b3e0b          	.insn	4, 0x030b3e0b
  34:	000e                	.insn	2, 0x000e
  36:	0500                	.insn	2, 0x0500
  38:	1301010b          	.insn	4, 0x1301010b
  3c:	0000                	.insn	2, 0x0000
  3e:	0b06                	.insn	2, 0x0b06
  40:	3101                	.insn	2, 0x3101
  42:	01175513          	srli	a0,a4,0x11
  46:	07000013          	li	zero,112
  4a:	0016                	.insn	2, 0x0016
  4c:	213a0e03          	lb	t3,531(s4)
  50:	3b02                	.insn	2, 0x3b02
  52:	490b390b          	.insn	4, 0x490b390b
  56:	08000013          	li	zero,128
  5a:	0034                	.insn	2, 0x0034
  5c:	1331                	.insn	2, 0x1331
  5e:	0000                	.insn	2, 0x0000
  60:	2609                	.insn	2, 0x2609
  62:	4900                	.insn	2, 0x4900
  64:	0a000013          	li	zero,160
  68:	0005                	.insn	2, 0x0005
  6a:	1331                	.insn	2, 0x1331
  6c:	1702                	.insn	2, 0x1702
  6e:	001742b7          	lui	t0,0x174
  72:	0b00                	.insn	2, 0x0b00
  74:	0005                	.insn	2, 0x0005
  76:	213a0803          	lb	a6,531(s4)
  7a:	3b01                	.insn	2, 0x3b01
  7c:	e321                	.insn	2, 0xe321
  7e:	490b3907          	.insn	4, 0x490b3907
  82:	0c000013          	li	zero,192
  86:	000d                	.insn	2, 0x000d
  88:	213a0803          	lb	a6,531(s4)
  8c:	3b02                	.insn	2, 0x3b02
  8e:	3905                	.insn	2, 0x3905
  90:	0013490b          	.insn	4, 0x0013490b
  94:	0d00                	.insn	2, 0x0d00
  96:	0005                	.insn	2, 0x0005
  98:	213a0803          	lb	a6,531(s4)
  9c:	3b01                	.insn	2, 0x3b01
  9e:	9221                	.insn	2, 0x9221
  a0:	390a                	.insn	2, 0x390a
  a2:	0213490b          	.insn	4, 0x0213490b
  a6:	1742b717          	auipc	a4,0x1742b
  aa:	0000                	.insn	2, 0x0000
  ac:	0b0e                	.insn	2, 0x0b0e
  ae:	3101                	.insn	2, 0x3101
  b0:	00175513          	srli	a0,a4,0x1
  b4:	0f00                	.insn	2, 0x0f00
  b6:	0000010b          	.insn	4, 0x010b
  ba:	1110                	.insn	2, 0x1110
  bc:	2501                	.insn	2, 0x2501
  be:	130e                	.insn	2, 0x130e
  c0:	0b01900b          	.insn	4, 0x0b01900b
  c4:	0191                	.insn	2, 0x0191
  c6:	0306                	.insn	2, 0x0306
  c8:	1b1f 111f 1201      	.insn	6, 0x1201111f1b1f
  ce:	1006                	.insn	2, 0x1006
  d0:	11000017          	auipc	zero,0x11000
  d4:	0024                	.insn	2, 0x0024
  d6:	0b3e0b0b          	.insn	4, 0x0b3e0b0b
  da:	00000803          	lb	a6,0(zero) # 0 <_jump-0x80002000>
  de:	1312                	.insn	2, 0x1312
  e0:	0301                	.insn	2, 0x0301
  e2:	0b0e                	.insn	2, 0x0b0e
  e4:	3b0b3a0b          	.insn	4, 0x3b0b3a0b
  e8:	3905                	.insn	2, 0x3905
  ea:	0013010b          	.insn	4, 0x0013010b
  ee:	1300                	.insn	2, 0x1300
  f0:	000d                	.insn	2, 0x000d
  f2:	0b3a0803          	lb	a6,179(s4)
  f6:	0b39053b          	.insn	4, 0x0b39053b
  fa:	1349                	.insn	2, 0x1349
  fc:	0b38                	.insn	2, 0x0b38
  fe:	0000                	.insn	2, 0x0000
 100:	0d14                	.insn	2, 0x0d14
 102:	0300                	.insn	2, 0x0300
 104:	3a0e                	.insn	2, 0x3a0e
 106:	39053b0b          	.insn	4, 0x39053b0b
 10a:	3813490b          	.insn	4, 0x3813490b
 10e:	1500000b          	.insn	4, 0x1500000b
 112:	0b0b0117          	auipc	sp,0xb0b0
 116:	0b3a                	.insn	2, 0x0b3a
 118:	0b39053b          	.insn	4, 0x0b39053b
 11c:	1301                	.insn	2, 0x1301
 11e:	0000                	.insn	2, 0x0000
 120:	1616                	.insn	2, 0x1616
 122:	0300                	.insn	2, 0x0300
 124:	3a0e                	.insn	2, 0x3a0e
 126:	39053b0b          	.insn	4, 0x39053b0b
 12a:	0013490b          	.insn	4, 0x0013490b
 12e:	1700                	.insn	2, 0x1700
 130:	0101                	.insn	2, 0x0101
 132:	1349                	.insn	2, 0x1349
 134:	1301                	.insn	2, 0x1301
 136:	0000                	.insn	2, 0x0000
 138:	2118                	.insn	2, 0x2118
 13a:	4900                	.insn	2, 0x4900
 13c:	000b2f13          	slti	t5,s6,0
 140:	1900                	.insn	2, 0x1900
 142:	0034                	.insn	2, 0x0034
 144:	0b3a0e03          	lb	t3,179(s4)
 148:	0b39053b          	.insn	4, 0x0b39053b
 14c:	1349                	.insn	2, 0x1349
 14e:	193c193f 2e1a0000 	.insn	8, 0x2e1a0000193c193f
 156:	3f01                	.insn	2, 0x3f01
 158:	0319                	.insn	2, 0x0319
 15a:	3a0e                	.insn	2, 0x3a0e
 15c:	39053b0b          	.insn	4, 0x39053b0b
 160:	4919270b          	.insn	4, 0x4919270b
 164:	12011113          	.insn	4, 0x12011113
 168:	4006                	.insn	2, 0x4006
 16a:	7a18                	.insn	2, 0x7a18
 16c:	0119                	.insn	2, 0x0119
 16e:	1b000013          	li	zero,432
 172:	011d                	.insn	2, 0x011d
 174:	1331                	.insn	2, 0x1331
 176:	0152                	.insn	2, 0x0152
 178:	42b8                	.insn	2, 0x42b8
 17a:	5817550b          	.insn	4, 0x5817550b
 17e:	5705590b          	.insn	4, 0x5705590b
 182:	1c00000b          	.insn	4, 0x1c00000b
 186:	0034                	.insn	2, 0x0034
 188:	1331                	.insn	2, 0x1331
 18a:	1802                	.insn	2, 0x1802
 18c:	0000                	.insn	2, 0x0000
 18e:	2e1d                	.insn	2, 0x2e1d
 190:	0301                	.insn	2, 0x0301
 192:	3a0e                	.insn	2, 0x3a0e
 194:	39053b0b          	.insn	4, 0x39053b0b
 198:	4919270b          	.insn	4, 0x4919270b
 19c:	010b2013          	slti	zero,s6,16
 1a0:	1e000013          	li	zero,480
 1a4:	0b0b000f          	.insn	4, 0x0b0b000f
 1a8:	1349                	.insn	2, 0x1349
 1aa:	0000                	.insn	2, 0x0000
 1ac:	0100                	.insn	2, 0x0100
 1ae:	0024                	.insn	2, 0x0024
 1b0:	0b3e0b0b          	.insn	4, 0x0b3e0b0b
 1b4:	00000e03          	lb	t3,0(zero) # 0 <_jump-0x80002000>
 1b8:	2602                	.insn	2, 0x2602
 1ba:	4900                	.insn	2, 0x4900
 1bc:	03000013          	li	zero,48
 1c0:	0111                	.insn	2, 0x0111
 1c2:	0e25                	.insn	2, 0x0e25
 1c4:	01900b13          	li	s6,25
 1c8:	0601910b          	.insn	4, 0x0601910b
 1cc:	1f1b1f03          	lh	t5,497(s6)
 1d0:	1710                	.insn	2, 0x1710
 1d2:	0000                	.insn	2, 0x0000
 1d4:	2404                	.insn	2, 0x2404
 1d6:	0b00                	.insn	2, 0x0b00
 1d8:	030b3e0b          	.insn	4, 0x030b3e0b
 1dc:	0008                	.insn	2, 0x0008
 1de:	0500                	.insn	2, 0x0500
 1e0:	0016                	.insn	2, 0x0016
 1e2:	0b3a0e03          	lb	t3,179(s4)
 1e6:	0b390b3b          	.insn	4, 0x0b390b3b
 1ea:	1349                	.insn	2, 0x1349
 1ec:	0000                	.insn	2, 0x0000
 1ee:	0106                	.insn	2, 0x0106
 1f0:	4901                	.insn	2, 0x4901
 1f2:	00130113          	addi	sp,t1,1
 1f6:	0700                	.insn	2, 0x0700
 1f8:	0021                	.insn	2, 0x0021
 1fa:	1349                	.insn	2, 0x1349
 1fc:	00000b2f          	.insn	4, 0x0b2f
 200:	3408                	.insn	2, 0x3408
 202:	0300                	.insn	2, 0x0300
 204:	3a0e                	.insn	2, 0x3a0e
 206:	39053b0b          	.insn	4, 0x39053b0b
 20a:	3f13490b          	.insn	4, 0x3f13490b
 20e:	3c19                	.insn	2, 0x3c19
 210:	0019                	.insn	2, 0x0019
 212:	0900                	.insn	2, 0x0900
 214:	0034                	.insn	2, 0x0034
 216:	0b3a1347          	.insn	4, 0x0b3a1347
 21a:	0b39053b          	.insn	4, 0x0b39053b
 21e:	1802                	.insn	2, 0x1802
 220:	0000                	.insn	2, 0x0000
	...

Disassembly of section .debug_loclists:

00000000 <.debug_loclists>:
   0:	0b94                	.insn	2, 0x0b94
   2:	0000                	.insn	2, 0x0000
   4:	0005                	.insn	2, 0x0005
   6:	0004                	.insn	2, 0x0004
   8:	0000                	.insn	2, 0x0000
   a:	0000                	.insn	2, 0x0000
   c:	3000                	.insn	2, 0x3000
   e:	5c30                	.insn	2, 0x5c30
  10:	605c                	.insn	2, 0x605c
  12:	6460                	.insn	2, 0x6460
  14:	7964                	.insn	2, 0x7964
  16:	8d79                	.insn	2, 0x8d79
  18:	8d01                	.insn	2, 0x8d01
  1a:	9d01                	.insn	2, 0x9d01
  1c:	9d01                	.insn	2, 0x9d01
  1e:	d601                	.insn	2, 0xd601
  20:	d601                	.insn	2, 0xd601
  22:	eb01                	.insn	2, 0xeb01
  24:	eb01                	.insn	2, 0xeb01
  26:	ec01                	.insn	2, 0xec01
  28:	ec01                	.insn	2, 0xec01
  2a:	cc01                	.insn	2, 0xcc01
  2c:	cc02                	.insn	2, 0xcc02
  2e:	d602                	.insn	2, 0xd602
  30:	d602                	.insn	2, 0xd602
  32:	0002                	.insn	2, 0x0002
  34:	0004                	.insn	2, 0x0004
  36:	0668                	.insn	2, 0x0668
  38:	935a                	.insn	2, 0x935a
  3a:	5b04                	.insn	2, 0x5b04
  3c:	68040493          	addi	s1,s0,1664
  40:	01e4                	.insn	2, 0x01e4
  42:	a306                	.insn	2, 0xa306
  44:	2b0aa503          	lw	a0,688(s5)
  48:	049f 01e4 01f8      	.insn	6, 0x01f801e4049f
  4e:	5a06                	.insn	2, 0x5a06
  50:	935b0493          	addi	s1,s6,-1739
  54:	0404                	.insn	2, 0x0404
  56:	01f8                	.insn	2, 0x01f8
  58:	0284                	.insn	2, 0x0284
  5a:	a306                	.insn	2, 0xa306
  5c:	2b0aa503          	lw	a0,688(s5)
  60:	049f 0284 02c0      	.insn	6, 0x02c00284049f
  66:	5a06                	.insn	2, 0x5a06
  68:	935b0493          	addi	s1,s6,-1739
  6c:	0404                	.insn	2, 0x0404
  6e:	02c0                	.insn	2, 0x02c0
  70:	0380                	.insn	2, 0x0380
  72:	a306                	.insn	2, 0xa306
  74:	2b0aa503          	lw	a0,688(s5)
  78:	049f 0380 03b0      	.insn	6, 0x03b00380049f
  7e:	5a06                	.insn	2, 0x5a06
  80:	935b0493          	addi	s1,s6,-1739
  84:	0404                	.insn	2, 0x0404
  86:	03b0                	.insn	2, 0x03b0
  88:	04d8                	.insn	2, 0x04d8
  8a:	a306                	.insn	2, 0xa306
  8c:	2b0aa503          	lw	a0,688(s5)
  90:	049f 04d8 05a0      	.insn	6, 0x05a004d8049f
  96:	5a06                	.insn	2, 0x5a06
  98:	935b0493          	addi	s1,s6,-1739
  9c:	0404                	.insn	2, 0x0404
  9e:	05a0                	.insn	2, 0x05a0
  a0:	05a8                	.insn	2, 0x05a8
  a2:	a306                	.insn	2, 0xa306
  a4:	2b0aa503          	lw	a0,688(s5)
  a8:	049f 05a8 07b4      	.insn	6, 0x07b405a8049f
  ae:	5a06                	.insn	2, 0x5a06
  b0:	935b0493          	addi	s1,s6,-1739
  b4:	0404                	.insn	2, 0x0404
  b6:	07b4                	.insn	2, 0x07b4
  b8:	07c8                	.insn	2, 0x07c8
  ba:	a306                	.insn	2, 0xa306
  bc:	2b0aa503          	lw	a0,688(s5)
  c0:	049f 07c8 07ec      	.insn	6, 0x07ec07c8049f
  c6:	5a06                	.insn	2, 0x5a06
  c8:	935b0493          	addi	s1,s6,-1739
  cc:	0004                	.insn	2, 0x0004
  ce:	3500                	.insn	2, 0x3500
  d0:	5c35                	.insn	2, 0x5c35
  d2:	605c                	.insn	2, 0x605c
  d4:	6460                	.insn	2, 0x6460
  d6:	7764                	.insn	2, 0x7764
  d8:	8d018d77          	.insn	4, 0x8d018d77
  dc:	9f01                	.insn	2, 0x9f01
  de:	9f01                	.insn	2, 0x9f01
  e0:	d601                	.insn	2, 0xd601
  e2:	d601                	.insn	2, 0xd601
  e4:	eb01                	.insn	2, 0xeb01
  e6:	eb01                	.insn	2, 0xeb01
  e8:	ec01                	.insn	2, 0xec01
  ea:	ec01                	.insn	2, 0xec01
  ec:	8201                	.insn	2, 0x8201
  ee:	8202                	.insn	2, 0x8202
  f0:	dc02                	.insn	2, 0xdc02
  f2:	dc02                	.insn	2, 0xdc02
  f4:	0002                	.insn	2, 0x0002
  f6:	0004                	.insn	2, 0x0004
  f8:	0180                	.insn	2, 0x0180
  fa:	5c06                	.insn	2, 0x5c06
  fc:	935d0493          	addi	s1,s10,-1739
 100:	0404                	.insn	2, 0x0404
 102:	0180                	.insn	2, 0x0180
 104:	01e4                	.insn	2, 0x01e4
 106:	a306                	.insn	2, 0xa306
 108:	2b0ca503          	lw	a0,688(s9)
 10c:	049f 01e4 01f8      	.insn	6, 0x01f801e4049f
 112:	5c06                	.insn	2, 0x5c06
 114:	935d0493          	addi	s1,s10,-1739
 118:	0404                	.insn	2, 0x0404
 11a:	01f8                	.insn	2, 0x01f8
 11c:	0284                	.insn	2, 0x0284
 11e:	a306                	.insn	2, 0xa306
 120:	2b0ca503          	lw	a0,688(s9)
 124:	049f 0284 02bc      	.insn	6, 0x02bc0284049f
 12a:	5c06                	.insn	2, 0x5c06
 12c:	935d0493          	addi	s1,s10,-1739
 130:	0404                	.insn	2, 0x0404
 132:	02bc                	.insn	2, 0x02bc
 134:	0380                	.insn	2, 0x0380
 136:	a306                	.insn	2, 0xa306
 138:	2b0ca503          	lw	a0,688(s9)
 13c:	049f 0380 03b8      	.insn	6, 0x03b80380049f
 142:	5c06                	.insn	2, 0x5c06
 144:	935d0493          	addi	s1,s10,-1739
 148:	0404                	.insn	2, 0x0404
 14a:	03b8                	.insn	2, 0x03b8
 14c:	04d8                	.insn	2, 0x04d8
 14e:	a306                	.insn	2, 0xa306
 150:	2b0ca503          	lw	a0,688(s9)
 154:	049f 04d8 05a0      	.insn	6, 0x05a004d8049f
 15a:	5c06                	.insn	2, 0x5c06
 15c:	935d0493          	addi	s1,s10,-1739
 160:	0404                	.insn	2, 0x0404
 162:	05a0                	.insn	2, 0x05a0
 164:	05a8                	.insn	2, 0x05a8
 166:	a306                	.insn	2, 0xa306
 168:	2b0ca503          	lw	a0,688(s9)
 16c:	049f 05a8 05f0      	.insn	6, 0x05f005a8049f
 172:	5c06                	.insn	2, 0x5c06
 174:	935d0493          	addi	s1,s10,-1739
 178:	0404                	.insn	2, 0x0404
 17a:	05f0                	.insn	2, 0x05f0
 17c:	07e0                	.insn	2, 0x07e0
 17e:	a306                	.insn	2, 0xa306
 180:	2b0ca503          	lw	a0,688(s9)
 184:	049f 07e0 07ec      	.insn	6, 0x07ec07e0049f
 18a:	5c06                	.insn	2, 0x5c06
 18c:	935d0493          	addi	s1,s10,-1739
 190:	0004                	.insn	2, 0x0004
 192:	3002                	.insn	2, 0x3002
 194:	605c                	.insn	2, 0x605c
 196:	7964                	.insn	2, 0x7964
 198:	018d                	.insn	2, 0x018d
 19a:	019d                	.insn	2, 0x019d
 19c:	01d6                	.insn	2, 0x01d6
 19e:	01ec01eb          	.insn	4, 0x01ec01eb
 1a2:	01fd                	.insn	2, 0x01fd
 1a4:	01fd                	.insn	2, 0x01fd
 1a6:	01ff 02dc 0400 6800 	.insn	10, 0x5a066800040002dc01ff
 1ae:	5a06 
 1b0:	935b0493          	addi	s1,s6,-1739
 1b4:	0404                	.insn	2, 0x0404
 1b6:	01e4                	.insn	2, 0x01e4
 1b8:	01f8                	.insn	2, 0x01f8
 1ba:	5a06                	.insn	2, 0x5a06
 1bc:	93560493          	addi	s1,a2,-1739
 1c0:	0404                	.insn	2, 0x0404
 1c2:	0284                	.insn	2, 0x0284
 1c4:	02c0                	.insn	2, 0x02c0
 1c6:	5a06                	.insn	2, 0x5a06
 1c8:	93560493          	addi	s1,a2,-1739
 1cc:	0404                	.insn	2, 0x0404
 1ce:	0380                	.insn	2, 0x0380
 1d0:	03b0                	.insn	2, 0x03b0
 1d2:	5a06                	.insn	2, 0x5a06
 1d4:	93560493          	addi	s1,a2,-1739
 1d8:	0404                	.insn	2, 0x0404
 1da:	04d8                	.insn	2, 0x04d8
 1dc:	05a0                	.insn	2, 0x05a0
 1de:	5a06                	.insn	2, 0x5a06
 1e0:	93560493          	addi	s1,a2,-1739
 1e4:	0404                	.insn	2, 0x0404
 1e6:	05a8                	.insn	2, 0x05a8
 1e8:	05dc                	.insn	2, 0x05dc
 1ea:	5a06                	.insn	2, 0x5a06
 1ec:	93560493          	addi	s1,a2,-1739
 1f0:	0404                	.insn	2, 0x0404
 1f2:	05dc                	.insn	2, 0x05dc
 1f4:	05e4                	.insn	2, 0x05e4
 1f6:	5a06                	.insn	2, 0x5a06
 1f8:	935b0493          	addi	s1,s6,-1739
 1fc:	0404                	.insn	2, 0x0404
 1fe:	07e0                	.insn	2, 0x07e0
 200:	07ec                	.insn	2, 0x07ec
 202:	5a06                	.insn	2, 0x5a06
 204:	93560493          	addi	s1,a2,-1739
 208:	0004                	.insn	2, 0x0004
 20a:	1a02                	.insn	2, 0x1a02
 20c:	351a                	.insn	2, 0x351a
 20e:	605c                	.insn	2, 0x605c
 210:	6764                	.insn	2, 0x6764
 212:	018d6f67          	.insn	4, 0x018d6f67
 216:	01d6018f          	.insn	4, 0x01d6018f
 21a:	01ea                	.insn	2, 0x01ea
 21c:	01ea                	.insn	2, 0x01ea
 21e:	01ec01eb          	.insn	4, 0x01ec01eb
 222:	02dc01f7          	.insn	4, 0x02dc01f7
 226:	0400                	.insn	2, 0x0400
 228:	2400                	.insn	2, 0x2400
 22a:	5c06                	.insn	2, 0x5c06
 22c:	935d0493          	addi	s1,s10,-1739
 230:	0404                	.insn	2, 0x0404
 232:	8024                	.insn	2, 0x8024
 234:	0601                	.insn	2, 0x0601
 236:	935c                	.insn	2, 0x935c
 238:	6104                	.insn	2, 0x6104
 23a:	e4040493          	addi	s1,s0,-448
 23e:	f801                	.insn	2, 0xf801
 240:	0601                	.insn	2, 0x0601
 242:	935c                	.insn	2, 0x935c
 244:	6104                	.insn	2, 0x6104
 246:	84040493          	addi	s1,s0,-1984
 24a:	8802                	.insn	2, 0x8802
 24c:	0602                	.insn	2, 0x0602
 24e:	935c                	.insn	2, 0x935c
 250:	5d04                	.insn	2, 0x5d04
 252:	88040493          	addi	s1,s0,-1920
 256:	a002                	.insn	2, 0xa002
 258:	0602                	.insn	2, 0x0602
 25a:	935c                	.insn	2, 0x935c
 25c:	6104                	.insn	2, 0x6104
 25e:	80040493          	addi	s1,s0,-2048
 262:	06038403          	lb	s0,96(t2)
 266:	935c                	.insn	2, 0x935c
 268:	6104                	.insn	2, 0x6104
 26a:	d8040493          	addi	s1,s0,-640
 26e:	9c04                	.insn	2, 0x9c04
 270:	0605                	.insn	2, 0x0605
 272:	935c                	.insn	2, 0x935c
 274:	5d04                	.insn	2, 0x5d04
 276:	9c040493          	addi	s1,s0,-1600
 27a:	a005                	.insn	2, 0xa005
 27c:	0605                	.insn	2, 0x0605
 27e:	935c                	.insn	2, 0x935c
 280:	6104                	.insn	2, 0x6104
 282:	a8040493          	addi	s1,s0,-1408
 286:	c805                	.insn	2, 0xc805
 288:	0605                	.insn	2, 0x0605
 28a:	935c                	.insn	2, 0x935c
 28c:	5d04                	.insn	2, 0x5d04
 28e:	e0040493          	addi	s1,s0,-512
 292:	0607ec07          	.insn	4, 0x0607ec07
 296:	935c                	.insn	2, 0x935c
 298:	5d04                	.insn	2, 0x5d04
 29a:	02000493          	li	s1,32
 29e:	5c5a                	.insn	2, 0x5c5a
 2a0:	0400                	.insn	2, 0x0400
 2a2:	d800                	.insn	2, 0xd800
 2a4:	0201                	.insn	2, 0x0201
 2a6:	9f30                	.insn	2, 0x9f30
 2a8:	e404                	.insn	2, 0xe404
 2aa:	ec01                	.insn	2, 0xec01
 2ac:	9f300207          	.insn	4, 0x9f300207
 2b0:	0b00                	.insn	2, 0x0b00
 2b2:	2525                	.insn	2, 0x2525
 2b4:	2828                	.insn	2, 0x2828
 2b6:	60605c57          	.insn	4, 0x60605c57
 2ba:	6464                	.insn	2, 0x6464
 2bc:	796e                	.insn	2, 0x796e
 2be:	018d                	.insn	2, 0x018d
 2c0:	018d                	.insn	2, 0x018d
 2c2:	0192                	.insn	2, 0x0192
 2c4:	0196                	.insn	2, 0x0196
 2c6:	01d6                	.insn	2, 0x01d6
 2c8:	01d6                	.insn	2, 0x01d6
 2ca:	01ec01eb          	.insn	4, 0x01ec01eb
 2ce:	02d602b7          	lui	t0,0x2d60
 2d2:	0400                	.insn	2, 0x0400
 2d4:	5004                	.insn	2, 0x5004
 2d6:	5c01                	.insn	2, 0x5c01
 2d8:	5004                	.insn	2, 0x5004
 2da:	095c                	.insn	2, 0x095c
 2dc:	007c                	.insn	2, 0x007c
 2de:	007d                	.insn	2, 0x007d
 2e0:	ff08                	.insn	2, 0xff08
 2e2:	241a                	.insn	2, 0x241a
 2e4:	049f d85c 0101      	.insn	6, 0x0101d85c049f
 2ea:	045e                	.insn	2, 0x045e
 2ec:	01e4                	.insn	2, 0x01e4
 2ee:	01f8                	.insn	2, 0x01f8
 2f0:	5c01                	.insn	2, 0x5c01
 2f2:	f804                	.insn	2, 0xf804
 2f4:	8401                	.insn	2, 0x8401
 2f6:	0102                	.insn	2, 0x0102
 2f8:	045e                	.insn	2, 0x045e
 2fa:	0284                	.insn	2, 0x0284
 2fc:	0294                	.insn	2, 0x0294
 2fe:	5c01                	.insn	2, 0x5c01
 300:	c004                	.insn	2, 0xc004
 302:	8002                	.insn	2, 0x8002
 304:	045e0103          	lb	sp,69(t3) # 1000045 <_jump-0x7f001fbb>
 308:	0380                	.insn	2, 0x0380
 30a:	0394                	.insn	2, 0x0394
 30c:	5c01                	.insn	2, 0x5c01
 30e:	9c04                	.insn	2, 0x9c04
 310:	0104d803          	lhu	a6,16(s1)
 314:	045e                	.insn	2, 0x045e
 316:	04d8                	.insn	2, 0x04d8
 318:	05a0                	.insn	2, 0x05a0
 31a:	5c01                	.insn	2, 0x5c01
 31c:	a804                	.insn	2, 0xa804
 31e:	f005                	.insn	2, 0xf005
 320:	0106                	.insn	2, 0x0106
 322:	045c                	.insn	2, 0x045c
 324:	07c8                	.insn	2, 0x07c8
 326:	07ec                	.insn	2, 0x07ec
 328:	5c01                	.insn	2, 0x5c01
 32a:	0d00                	.insn	2, 0x0d00
 32c:	1a1a                	.insn	2, 0x1a1a
 32e:	5c40                	.insn	2, 0x5c40
 330:	6464                	.insn	2, 0x6464
 332:	8d6f6767          	.insn	4, 0x8d6f6767
 336:	8f01                	.insn	2, 0x8f01
 338:	d601                	.insn	2, 0xd601
 33a:	ea01                	.insn	2, 0xea01
 33c:	ea01                	.insn	2, 0xea01
 33e:	eb01                	.insn	2, 0xeb01
 340:	ec01                	.insn	2, 0xec01
 342:	f701                	.insn	2, 0xf701
 344:	f801                	.insn	2, 0xf801
 346:	b501                	.insn	2, 0xb501
 348:	d602                	.insn	2, 0xd602
 34a:	dc02                	.insn	2, 0xdc02
 34c:	dc02                	.insn	2, 0xdc02
 34e:	0002                	.insn	2, 0x0002
 350:	0804                	.insn	2, 0x0804
 352:	0124                	.insn	2, 0x0124
 354:	045d                	.insn	2, 0x045d
 356:	a024                	.insn	2, 0xa024
 358:	0101                	.insn	2, 0x0101
 35a:	0461                	.insn	2, 0x0461
 35c:	01e4                	.insn	2, 0x01e4
 35e:	0284                	.insn	2, 0x0284
 360:	6101                	.insn	2, 0x6101
 362:	8404                	.insn	2, 0x8404
 364:	8802                	.insn	2, 0x8802
 366:	0102                	.insn	2, 0x0102
 368:	045d                	.insn	2, 0x045d
 36a:	0288                	.insn	2, 0x0288
 36c:	02a0                	.insn	2, 0x02a0
 36e:	6101                	.insn	2, 0x6101
 370:	8004                	.insn	2, 0x8004
 372:	01038403          	lb	s0,16(t2)
 376:	0461                	.insn	2, 0x0461
 378:	04d8                	.insn	2, 0x04d8
 37a:	059c                	.insn	2, 0x059c
 37c:	5d01                	.insn	2, 0x5d01
 37e:	9c04                	.insn	2, 0x9c04
 380:	a005                	.insn	2, 0xa005
 382:	0105                	.insn	2, 0x0105
 384:	0461                	.insn	2, 0x0461
 386:	05a8                	.insn	2, 0x05a8
 388:	05c8                	.insn	2, 0x05c8
 38a:	5d01                	.insn	2, 0x5d01
 38c:	cc04                	.insn	2, 0xcc04
 38e:	e805                	.insn	2, 0xe805
 390:	0106                	.insn	2, 0x0106
 392:	0461                	.insn	2, 0x0461
 394:	07c8                	.insn	2, 0x07c8
 396:	07e0                	.insn	2, 0x07e0
 398:	6101                	.insn	2, 0x6101
 39a:	e004                	.insn	2, 0xe004
 39c:	0107ec07          	.insn	4, 0x0107ec07
 3a0:	005d                	.insn	2, 0x005d
 3a2:	462c2c0f          	.insn	4, 0x462c2c0f
 3a6:	605c                	.insn	2, 0x605c
 3a8:	6460                	.insn	2, 0x6460
 3aa:	7964                	.insn	2, 0x7964
 3ac:	8d79                	.insn	2, 0x8d79
 3ae:	8d01                	.insn	2, 0x8d01
 3b0:	9d01                	.insn	2, 0x9d01
 3b2:	a201                	.insn	2, 0xa201
 3b4:	d401                	.insn	2, 0xd401
 3b6:	d601                	.insn	2, 0xd601
 3b8:	eb01                	.insn	2, 0xeb01
 3ba:	ec01                	.insn	2, 0xec01
 3bc:	8501                	.insn	2, 0x8501
 3be:	dc02                	.insn	2, 0xdc02
 3c0:	0002                	.insn	2, 0x0002
 3c2:	0c04                	.insn	2, 0x0c04
 3c4:	0164                	.insn	2, 0x0164
 3c6:	045a                	.insn	2, 0x045a
 3c8:	a864                	.insn	2, 0xa864
 3ca:	0101                	.insn	2, 0x0101
 3cc:	0460                	.insn	2, 0x0460
 3ce:	01e4                	.insn	2, 0x01e4
 3d0:	01f8                	.insn	2, 0x01f8
 3d2:	5a01                	.insn	2, 0x5a01
 3d4:	f804                	.insn	2, 0xf804
 3d6:	8401                	.insn	2, 0x8401
 3d8:	0102                	.insn	2, 0x0102
 3da:	0460                	.insn	2, 0x0460
 3dc:	0284                	.insn	2, 0x0284
 3de:	02c0                	.insn	2, 0x02c0
 3e0:	5a01                	.insn	2, 0x5a01
 3e2:	c004                	.insn	2, 0xc004
 3e4:	8002                	.insn	2, 0x8002
 3e6:	04600103          	lb	sp,70(zero) # 46 <_jump-0x80001fba>
 3ea:	0380                	.insn	2, 0x0380
 3ec:	03b0                	.insn	2, 0x03b0
 3ee:	5a01                	.insn	2, 0x5a01
 3f0:	c004                	.insn	2, 0xc004
 3f2:	0104d003          	lhu	zero,16(s1)
 3f6:	0460                	.insn	2, 0x0460
 3f8:	04d8                	.insn	2, 0x04d8
 3fa:	05a0                	.insn	2, 0x05a0
 3fc:	5a01                	.insn	2, 0x5a01
 3fe:	a804                	.insn	2, 0xa804
 400:	f005                	.insn	2, 0xf005
 402:	0105                	.insn	2, 0x0105
 404:	045a                	.insn	2, 0x045a
 406:	07e0                	.insn	2, 0x07e0
 408:	07ec                	.insn	2, 0x07ec
 40a:	5a01                	.insn	2, 0x5a01
 40c:	1100                	.insn	2, 0x1100
 40e:	2a2a                	.insn	2, 0x2a2a
 410:	5c34                	.insn	2, 0x5c34
 412:	6460                	.insn	2, 0x6460
 414:	01827777          	.insn	4, 0x01827777
 418:	018d                	.insn	2, 0x018d
 41a:	01a1                	.insn	2, 0x01a1
 41c:	01a1                	.insn	2, 0x01a1
 41e:	01b9                	.insn	2, 0x01b9
 420:	01ca                	.insn	2, 0x01ca
 422:	01cd                	.insn	2, 0x01cd
 424:	01d6                	.insn	2, 0x01d6
 426:	01ec01eb          	.insn	4, 0x01ec01eb
 42a:	01fd                	.insn	2, 0x01fd
 42c:	01fd                	.insn	2, 0x01fd
 42e:	01ff 0284 029c 02ac 	.insn	10, 0x02d902ac029c028401ff
 436:	02d9 
 438:	02dc                	.insn	2, 0x02dc
 43a:	0400                	.insn	2, 0x0400
 43c:	6010                	.insn	2, 0x6010
 43e:	5b01                	.insn	2, 0x5b01
 440:	6004                	.insn	2, 0x6004
 442:	017c                	.insn	2, 0x017c
 444:	0456                	.insn	2, 0x0456
 446:	01e4                	.insn	2, 0x01e4
 448:	01f8                	.insn	2, 0x01f8
 44a:	5601                	.insn	2, 0x5601
 44c:	8404                	.insn	2, 0x8404
 44e:	bc02                	.insn	2, 0xbc02
 450:	0102                	.insn	2, 0x0102
 452:	0456                	.insn	2, 0x0456
 454:	02bc                	.insn	2, 0x02bc
 456:	02d8                	.insn	2, 0x02d8
 458:	5c01                	.insn	2, 0x5c01
 45a:	8004                	.insn	2, 0x8004
 45c:	0103c003          	lbu	zero,16(t2)
 460:	0456                	.insn	2, 0x0456
 462:	03c0                	.insn	2, 0x03c0
 464:	03f4                	.insn	2, 0x03f4
 466:	5f01                	.insn	2, 0x5f01
 468:	ac04                	.insn	2, 0xac04
 46a:	b804                	.insn	2, 0xb804
 46c:	0104                	.insn	2, 0x0104
 46e:	045f 04d8 05a0      	.insn	6, 0x05a004d8045f
 474:	5601                	.insn	2, 0x5601
 476:	a804                	.insn	2, 0xa804
 478:	dc05                	.insn	2, 0xdc05
 47a:	0105                	.insn	2, 0x0105
 47c:	0456                	.insn	2, 0x0456
 47e:	05dc                	.insn	2, 0x05dc
 480:	05e4                	.insn	2, 0x05e4
 482:	5b01                	.insn	2, 0x5b01
 484:	f004                	.insn	2, 0xf004
 486:	a405                	.insn	2, 0xa405
 488:	0106                	.insn	2, 0x0106
 48a:	045e                	.insn	2, 0x045e
 48c:	06d8                	.insn	2, 0x06d8
 48e:	07d4                	.insn	2, 0x07d4
 490:	5e01                	.insn	2, 0x5e01
 492:	e004                	.insn	2, 0xe004
 494:	0107ec07          	.insn	4, 0x0107ec07
 498:	0056                	.insn	2, 0x0056
 49a:	0198                	.insn	2, 0x0198
 49c:	01aa                	.insn	2, 0x01aa
 49e:	028d0283          	lb	t0,40(s10)
 4a2:	a004                	.insn	2, 0xa004
 4a4:	0103c403          	lbu	s0,16(t2)
 4a8:	045d                	.insn	2, 0x045d
 4aa:	05f0                	.insn	2, 0x05f0
 4ac:	05f4                	.insn	2, 0x05f4
 4ae:	5d01                	.insn	2, 0x5d01
 4b0:	5600                	.insn	2, 0x5600
 4b2:	ab5a                	.insn	2, 0xab5a
 4b4:	d602                	.insn	2, 0xd602
 4b6:	0402                	.insn	2, 0x0402
 4b8:	01d8                	.insn	2, 0x01d8
 4ba:	01d8                	.insn	2, 0x01d8
 4bc:	5f01                	.insn	2, 0x5f01
 4be:	d804                	.insn	2, 0xd804
 4c0:	c806                	.insn	2, 0xc806
 4c2:	005f0107          	.insn	4, 0x005f0107
 4c6:	79785a57          	.insn	4, 0x79785a57
 4ca:	8d79                	.insn	2, 0x8d79
 4cc:	c901                	.insn	2, 0xc901
 4ce:	ca01                	.insn	2, 0xca01
 4d0:	d001                	.insn	2, 0xd001
 4d2:	d401                	.insn	2, 0xd401
 4d4:	0401                	.insn	2, 0x0401
 4d6:	01d8                	.insn	2, 0x01d8
 4d8:	01d8                	.insn	2, 0x01d8
 4da:	6101                	.insn	2, 0x6101
 4dc:	bc04                	.insn	2, 0xbc04
 4de:	c002                	.insn	2, 0xc002
 4e0:	0202                	.insn	2, 0x0202
 4e2:	9f31                	.insn	2, 0x9f31
 4e4:	c004                	.insn	2, 0xc004
 4e6:	8002                	.insn	2, 0x8002
 4e8:	04610103          	lb	sp,70(sp) # b0b0158 <_jump-0x74f51ea8>
 4ec:	04a8                	.insn	2, 0x04a8
 4ee:	04ac                	.insn	2, 0x04ac
 4f0:	6101                	.insn	2, 0x6101
 4f2:	c404                	.insn	2, 0xc404
 4f4:	d004                	.insn	2, 0xd004
 4f6:	0104                	.insn	2, 0x0104
 4f8:	0061                	.insn	2, 0x0061
 4fa:	0194                	.insn	2, 0x0194
 4fc:	01f4019b          	.insn	4, 0x01f4019b
 500:	0280                	.insn	2, 0x0280
 502:	9804                	.insn	2, 0x9804
 504:	0103a803          	lw	a6,16(t2)
 508:	045f 05c0 05e8      	.insn	6, 0x05e805c0045f
 50e:	5e01                	.insn	2, 0x5e01
 510:	1d00                	.insn	2, 0x1d00
 512:	702c2323          	sw	sp,1798(s8)
 516:	9279                	.insn	2, 0x9279
 518:	9b01                	.insn	2, 0x9b01
 51a:	e201                	.insn	2, 0xe201
 51c:	eb01                	.insn	2, 0xeb01
 51e:	f101                	.insn	2, 0xf101
 520:	8001                	.insn	2, 0x8001
 522:	0402                	.insn	2, 0x0402
 524:	5044                	.insn	2, 0x5044
 526:	0806                	.insn	2, 0x0806
 528:	7f20                	.insn	2, 0x7f20
 52a:	1c00                	.insn	2, 0x1c00
 52c:	049f 6450 5d01      	.insn	6, 0x5d016450049f
 532:	b004                	.insn	2, 0xb004
 534:	c002                	.insn	2, 0xc002
 536:	0602                	.insn	2, 0x0602
 538:	2008                	.insn	2, 0x2008
 53a:	007f 9f1c 9404 a803 	.insn	10, 0x0603a80394049f1c007f
 542:	0603 
 544:	2008                	.insn	2, 0x2008
 546:	007f 9f1c 8c04 a005 	.insn	10, 0x0605a0058c049f1c007f
 54e:	0605 
 550:	2008                	.insn	2, 0x2008
 552:	007e                	.insn	2, 0x007e
 554:	9f1c                	.insn	2, 0x9f1c
 556:	bc04                	.insn	2, 0xbc04
 558:	e805                	.insn	2, 0xe805
 55a:	0605                	.insn	2, 0x0605
 55c:	2008                	.insn	2, 0x2008
 55e:	007e                	.insn	2, 0x007e
 560:	9f1c                	.insn	2, 0x9f1c
 562:	1700                	.insn	2, 0x1700
 564:	2525                	.insn	2, 0x2525
 566:	2828                	.insn	2, 0x2828
 568:	5c40                	.insn	2, 0x5c40
 56a:	6060                	.insn	2, 0x6060
 56c:	0464                	.insn	2, 0x0464
 56e:	5020                	.insn	2, 0x5020
 570:	5c01                	.insn	2, 0x5c01
 572:	5004                	.insn	2, 0x5004
 574:	095c                	.insn	2, 0x095c
 576:	007c                	.insn	2, 0x007c
 578:	007d                	.insn	2, 0x007d
 57a:	ff08                	.insn	2, 0xff08
 57c:	241a                	.insn	2, 0x241a
 57e:	049f a05c 0101      	.insn	6, 0x0101a05c049f
 584:	045e                	.insn	2, 0x045e
 586:	01e4                	.insn	2, 0x01e4
 588:	01f8                	.insn	2, 0x01f8
 58a:	5c01                	.insn	2, 0x5c01
 58c:	f804                	.insn	2, 0xf804
 58e:	8401                	.insn	2, 0x8401
 590:	0102                	.insn	2, 0x0102
 592:	005e                	.insn	2, 0x005e
 594:	211c                	.insn	2, 0x211c
 596:	3404                	.insn	2, 0x3404
 598:	0148                	.insn	2, 0x0148
 59a:	005d                	.insn	2, 0x005d
 59c:	4030                	.insn	2, 0x4030
 59e:	6460                	.insn	2, 0x6460
 5a0:	6804                	.insn	2, 0x6804
 5a2:	01a0                	.insn	2, 0x01a0
 5a4:	5a01                	.insn	2, 0x5a01
 5a6:	f804                	.insn	2, 0xf804
 5a8:	8401                	.insn	2, 0x8401
 5aa:	0102                	.insn	2, 0x0102
 5ac:	005a                	.insn	2, 0x005a
 5ae:	4031                	.insn	2, 0x4031
 5b0:	6460                	.insn	2, 0x6460
 5b2:	7404                	.insn	2, 0x7404
 5b4:	01a0                	.insn	2, 0x01a0
 5b6:	5b01                	.insn	2, 0x5b01
 5b8:	f804                	.insn	2, 0xf804
 5ba:	8401                	.insn	2, 0x8401
 5bc:	0102                	.insn	2, 0x0102
 5be:	3933005b          	.insn	4, 0x3933005b
 5c2:	3d39                	.insn	2, 0x3d39
 5c4:	403d                	.insn	2, 0x403d
 5c6:	6260                	.insn	2, 0x6260
 5c8:	6462                	.insn	2, 0x6462
 5ca:	7404                	.insn	2, 0x7404
 5cc:	018c                	.insn	2, 0x018c
 5ce:	5f01                	.insn	2, 0x5f01
 5d0:	8c04                	.insn	2, 0x8c04
 5d2:	9c01                	.insn	2, 0x9c01
 5d4:	0301                	.insn	2, 0x0301
 5d6:	7f7f                	.insn	2, 0x7f7f
 5d8:	049f 019c 01a0      	.insn	6, 0x01a0019c049f
 5de:	5f01                	.insn	2, 0x5f01
 5e0:	f804                	.insn	2, 0xf804
 5e2:	fc01                	.insn	2, 0xfc01
 5e4:	0301                	.insn	2, 0x0301
 5e6:	7f7f                	.insn	2, 0x7f7f
 5e8:	049f 01fc 0284      	.insn	6, 0x028401fc049f
 5ee:	5f01                	.insn	2, 0x5f01
 5f0:	3200                	.insn	2, 0x3200
 5f2:	3434                	.insn	2, 0x3434
 5f4:	3736                	.insn	2, 0x3736
 5f6:	6040                	.insn	2, 0x6040
 5f8:	04646363          	bltu	s0,t1,63e <_jump-0x800019c2>
 5fc:	7c74                	.insn	2, 0x7c74
 5fe:	7606                	.insn	2, 0x7606
 600:	7a00                	.insn	2, 0x7a00
 602:	1d00                	.insn	2, 0x1d00
 604:	049f 847c 0101      	.insn	6, 0x0101847c049f
 60a:	0456                	.insn	2, 0x0456
 60c:	0188                	.insn	2, 0x0188
 60e:	01a0                	.insn	2, 0x01a0
 610:	5d01                	.insn	2, 0x5d01
 612:	f804                	.insn	2, 0xf804
 614:	8001                	.insn	2, 0x8001
 616:	0102                	.insn	2, 0x0102
 618:	045d                	.insn	2, 0x045d
 61a:	0280                	.insn	2, 0x0280
 61c:	0284                	.insn	2, 0x0284
 61e:	4000800b          	.insn	4, 0x4000800b
 622:	7625                	.insn	2, 0x7625
 624:	2100                	.insn	2, 0x2100
 626:	007e                	.insn	2, 0x007e
 628:	9f22                	.insn	2, 0x9f22
 62a:	3f00                	.insn	2, 0x3f00
 62c:	0440                	.insn	2, 0x0440
 62e:	01a0                	.insn	2, 0x01a0
 630:	01a0                	.insn	2, 0x01a0
 632:	7d06                	.insn	2, 0x7d06
 634:	7a00                	.insn	2, 0x7a00
 636:	1d00                	.insn	2, 0x1d00
 638:	009f 4035 6460      	.insn	6, 0x64604035009f
 63e:	8004                	.insn	2, 0x8004
 640:	a001                	.insn	2, 0xa001
 642:	0101                	.insn	2, 0x0101
 644:	045c                	.insn	2, 0x045c
 646:	01f8                	.insn	2, 0x01f8
 648:	0284                	.insn	2, 0x0284
 64a:	5c01                	.insn	2, 0x5c01
 64c:	7e00                	.insn	2, 0x7e00
 64e:	018d                	.insn	2, 0x018d
 650:	01d0                	.insn	2, 0x01d0
 652:	01d4                	.insn	2, 0x01d4
 654:	c404                	.insn	2, 0xc404
 656:	8002                	.insn	2, 0x8002
 658:	045a0103          	lb	sp,69(s4)
 65c:	04c4                	.insn	2, 0x04c4
 65e:	04d0                	.insn	2, 0x04d0
 660:	5a01                	.insn	2, 0x5a01
 662:	7f00                	.insn	2, 0x7f00
 664:	018d                	.insn	2, 0x018d
 666:	01d0                	.insn	2, 0x01d0
 668:	01d4                	.insn	2, 0x01d4
 66a:	d004                	.insn	2, 0xd004
 66c:	8002                	.insn	2, 0x8002
 66e:	045b0103          	lb	sp,69(s6)
 672:	04c4                	.insn	2, 0x04c4
 674:	04d0                	.insn	2, 0x04d0
 676:	5b01                	.insn	2, 0x5b01
 678:	8100                	.insn	2, 0x8100
 67a:	8701                	.insn	2, 0x8701
 67c:	8701                	.insn	2, 0x8701
 67e:	8b01                	.insn	2, 0x8b01
 680:	8b01                	.insn	2, 0x8b01
 682:	8d01                	.insn	2, 0x8d01
 684:	d001                	.insn	2, 0xd001
 686:	d201                	.insn	2, 0xd201
 688:	d201                	.insn	2, 0xd201
 68a:	d401                	.insn	2, 0xd401
 68c:	0401                	.insn	2, 0x0401
 68e:	02d0                	.insn	2, 0x02d0
 690:	02e8                	.insn	2, 0x02e8
 692:	5f01                	.insn	2, 0x5f01
 694:	e804                	.insn	2, 0xe804
 696:	f802                	.insn	2, 0xf802
 698:	0302                	.insn	2, 0x0302
 69a:	7f7f                	.insn	2, 0x7f7f
 69c:	049f 02f8 0380      	.insn	6, 0x038002f8049f
 6a2:	5f01                	.insn	2, 0x5f01
 6a4:	c404                	.insn	2, 0xc404
 6a6:	c804                	.insn	2, 0xc804
 6a8:	0304                	.insn	2, 0x0304
 6aa:	7f7f                	.insn	2, 0x7f7f
 6ac:	049f 04c8 04d0      	.insn	6, 0x04d004c8049f
 6b2:	5f01                	.insn	2, 0x5f01
 6b4:	4400                	.insn	2, 0x4400
 6b6:	4e4e                	.insn	2, 0x4e4e
 6b8:	d4575353          	.insn	4, 0xd4575353
 6bc:	d501                	.insn	2, 0xd501
 6be:	d501                	.insn	2, 0xd501
 6c0:	d601                	.insn	2, 0xd601
 6c2:	0401                	.insn	2, 0x0401
 6c4:	01a4                	.insn	2, 0x01a4
 6c6:	01c0                	.insn	2, 0x01c0
 6c8:	5c01                	.insn	2, 0x5c01
 6ca:	c004                	.insn	2, 0xc004
 6cc:	d001                	.insn	2, 0xd001
 6ce:	0301                	.insn	2, 0x0301
 6d0:	7f7c                	.insn	2, 0x7f7c
 6d2:	049f 01d0 01d8      	.insn	6, 0x01d801d0049f
 6d8:	5c01                	.insn	2, 0x5c01
 6da:	d004                	.insn	2, 0xd004
 6dc:	d404                	.insn	2, 0xd404
 6de:	0304                	.insn	2, 0x0304
 6e0:	7f7c                	.insn	2, 0x7f7c
 6e2:	049f 04d4 04d8      	.insn	6, 0x04d804d4049f
 6e8:	9f017c03          	.insn	4, 0x9f017c03
 6ec:	4000                	.insn	2, 0x4000
 6ee:	82018047          	.insn	4, 0x82018047
 6f2:	8201                	.insn	2, 0x8201
 6f4:	8401                	.insn	2, 0x8401
 6f6:	8501                	.insn	2, 0x8501
 6f8:	8c01                	.insn	2, 0x8c01
 6fa:	d001                	.insn	2, 0xd001
 6fc:	d301                	.insn	2, 0xd301
 6fe:	d301                	.insn	2, 0xd301
 700:	d401                	.insn	2, 0xd401
 702:	0401                	.insn	2, 0x0401
 704:	01a0                	.insn	2, 0x01a0
 706:	01b0                	.insn	2, 0x01b0
 708:	5d01                	.insn	2, 0x5d01
 70a:	d004                	.insn	2, 0xd004
 70c:	d802                	.insn	2, 0xd802
 70e:	0602                	.insn	2, 0x0602
 710:	007c                	.insn	2, 0x007c
 712:	007a                	.insn	2, 0x007a
 714:	9f1d                	.insn	2, 0x9f1d
 716:	d804                	.insn	2, 0xd804
 718:	e002                	.insn	2, 0xe002
 71a:	0102                	.insn	2, 0x0102
 71c:	045c                	.insn	2, 0x045c
 71e:	02e4                	.insn	2, 0x02e4
 720:	02fc                	.insn	2, 0x02fc
 722:	5d01                	.insn	2, 0x5d01
 724:	c404                	.insn	2, 0xc404
 726:	cc04                	.insn	2, 0xcc04
 728:	0104                	.insn	2, 0x0104
 72a:	045d                	.insn	2, 0x045d
 72c:	04cc                	.insn	2, 0x04cc
 72e:	04d0                	.insn	2, 0x04d0
 730:	4000800b          	.insn	4, 0x4000800b
 734:	7c25                	.insn	2, 0x7c25
 736:	2100                	.insn	2, 0x2100
 738:	007e                	.insn	2, 0x007e
 73a:	9f22                	.insn	2, 0x9f22
 73c:	4200                	.insn	2, 0x4200
 73e:	4b4a4747          	.insn	4, 0x4b4a4747
 742:	d501d453          	.insn	4, 0xd501d453
 746:	d501                	.insn	2, 0xd501
 748:	d601                	.insn	2, 0xd601
 74a:	0401                	.insn	2, 0x0401
 74c:	01a0                	.insn	2, 0x01a0
 74e:	01b0                	.insn	2, 0x01b0
 750:	7d06                	.insn	2, 0x7d06
 752:	7a00                	.insn	2, 0x7a00
 754:	1d00                	.insn	2, 0x1d00
 756:	049f 01b0 01b8      	.insn	6, 0x01b801b0049f
 75c:	5d01                	.insn	2, 0x5d01
 75e:	bc04                	.insn	2, 0xbc04
 760:	d001                	.insn	2, 0xd001
 762:	0101                	.insn	2, 0x0101
 764:	0460                	.insn	2, 0x0460
 766:	04d0                	.insn	2, 0x04d0
 768:	04d4                	.insn	2, 0x04d4
 76a:	6001                	.insn	2, 0x6001
 76c:	d404                	.insn	2, 0xd404
 76e:	d804                	.insn	2, 0xd804
 770:	0604                	.insn	2, 0x0604
 772:	007e                	.insn	2, 0x007e
 774:	0080                	.insn	2, 0x0080
 776:	9f22                	.insn	2, 0x9f22
 778:	4800                	.insn	2, 0x4800
 77a:	8d018357          	.insn	4, 0x8d018357
 77e:	d001                	.insn	2, 0xd001
 780:	d401                	.insn	2, 0xd401
 782:	d401                	.insn	2, 0xd401
 784:	d601                	.insn	2, 0xd601
 786:	0401                	.insn	2, 0x0401
 788:	01b4                	.insn	2, 0x01b4
 78a:	01d8                	.insn	2, 0x01d8
 78c:	5b01                	.insn	2, 0x5b01
 78e:	dc04                	.insn	2, 0xdc04
 790:	8002                	.insn	2, 0x8002
 792:	04560103          	lb	sp,69(a2)
 796:	04c4                	.insn	2, 0x04c4
 798:	04d0                	.insn	2, 0x04d0
 79a:	5601                	.insn	2, 0x5601
 79c:	d004                	.insn	2, 0xd004
 79e:	d804                	.insn	2, 0xd804
 7a0:	0104                	.insn	2, 0x0104
 7a2:	6e6b005b          	.insn	4, 0x6e6b005b
 7a6:	018d                	.insn	2, 0x018d
 7a8:	0192                	.insn	2, 0x0192
 7aa:	8c04                	.insn	2, 0x8c04
 7ac:	9402                	.insn	2, 0x9402
 7ae:	0102                	.insn	2, 0x0102
 7b0:	045c                	.insn	2, 0x045c
 7b2:	0380                	.insn	2, 0x0380
 7b4:	0394                	.insn	2, 0x0394
 7b6:	5c01                	.insn	2, 0x5c01
 7b8:	6f00                	.insn	2, 0x6f00
 7ba:	0474                	.insn	2, 0x0474
 7bc:	02a0                	.insn	2, 0x02a0
 7be:	02b4                	.insn	2, 0x02b4
 7c0:	5d01                	.insn	2, 0x5d01
 7c2:	a600                	.insn	2, 0xa600
 7c4:	d001                	.insn	2, 0xd001
 7c6:	0401                	.insn	2, 0x0401
 7c8:	03c0                	.insn	2, 0x03c0
 7ca:	04c4                	.insn	2, 0x04c4
 7cc:	5a01                	.insn	2, 0x5a01
 7ce:	a700                	.insn	2, 0xa700
 7d0:	bb01                	.insn	2, 0xbb01
 7d2:	bb01                	.insn	2, 0xbb01
 7d4:	ca01                	.insn	2, 0xca01
 7d6:	ca01                	.insn	2, 0xca01
 7d8:	cd01                	.insn	2, 0xcd01
 7da:	cd01                	.insn	2, 0xcd01
 7dc:	d001                	.insn	2, 0xd001
 7de:	0401                	.insn	2, 0x0401
 7e0:	03c0                	.insn	2, 0x03c0
 7e2:	0480                	.insn	2, 0x0480
 7e4:	5c01                	.insn	2, 0x5c01
 7e6:	8004                	.insn	2, 0x8004
 7e8:	ac04                	.insn	2, 0xac04
 7ea:	0704                	.insn	2, 0x0704
 7ec:	007e                	.insn	2, 0x007e
 7ee:	2440                	.insn	2, 0x2440
 7f0:	2540                	.insn	2, 0x2540
 7f2:	049f 04ac 04b8      	.insn	6, 0x04b804ac049f
 7f8:	5c01                	.insn	2, 0x5c01
 7fa:	b804                	.insn	2, 0xb804
 7fc:	c404                	.insn	2, 0xc404
 7fe:	0704                	.insn	2, 0x0704
 800:	007e                	.insn	2, 0x007e
 802:	2440                	.insn	2, 0x2440
 804:	2540                	.insn	2, 0x2540
 806:	009f 01a9 01af      	.insn	6, 0x01af01a9009f
 80c:	01b301af          	.insn	4, 0x01b301af
 810:	01c601b3          	add	gp,a2,t3
 814:	01ca                	.insn	2, 0x01ca
 816:	01cb01cb          	.insn	4, 0x01cb01cb
 81a:	01d0                	.insn	2, 0x01d0
 81c:	c004                	.insn	2, 0xc004
 81e:	0103d803          	lhu	a6,16(t2)
 822:	0461                	.insn	2, 0x0461
 824:	03d8                	.insn	2, 0x03d8
 826:	03e8                	.insn	2, 0x03e8
 828:	9f7f8103          	lb	sp,-1545(t6)
 82c:	e804                	.insn	2, 0xe804
 82e:	0104a003          	lw	zero,16(s1)
 832:	0461                	.insn	2, 0x0461
 834:	04ac                	.insn	2, 0x04ac
 836:	04b0                	.insn	2, 0x04b0
 838:	9f7f8103          	lb	sp,-1545(t6)
 83c:	b004                	.insn	2, 0xb004
 83e:	c404                	.insn	2, 0xc404
 840:	0104                	.insn	2, 0x0104
 842:	0061                	.insn	2, 0x0061
 844:	01c101b7          	lui	gp,0x1c10
 848:	01c1                	.insn	2, 0x01c1
 84a:	01c5                	.insn	2, 0x01c5
 84c:	01c5                	.insn	2, 0x01c5
 84e:	01ca                	.insn	2, 0x01ca
 850:	01cd                	.insn	2, 0x01cd
 852:	01ce                	.insn	2, 0x01ce
 854:	01ce                	.insn	2, 0x01ce
 856:	01d0                	.insn	2, 0x01d0
 858:	f004                	.insn	2, 0xf004
 85a:	01048c03          	lb	s8,16(s1)
 85e:	048c045b          	.insn	4, 0x048c045b
 862:	049c                	.insn	2, 0x049c
 864:	9f7f7b03          	.insn	4, 0x9f7f7b03
 868:	9c04                	.insn	2, 0x9c04
 86a:	ac04                	.insn	2, 0xac04
 86c:	0104                	.insn	2, 0x0104
 86e:	04b8045b          	.insn	4, 0x04b8045b
 872:	04bc                	.insn	2, 0x04bc
 874:	9f7f7b03          	.insn	4, 0x9f7f7b03
 878:	bc04                	.insn	2, 0xbc04
 87a:	c404                	.insn	2, 0xc404
 87c:	0104                	.insn	2, 0x0104
 87e:	01a8005b          	.insn	4, 0x01a8005b
 882:	01aa                	.insn	2, 0x01aa
 884:	01aa                	.insn	2, 0x01aa
 886:	01ac                	.insn	2, 0x01ac
 888:	01ad                	.insn	2, 0x01ad
 88a:	01ba                	.insn	2, 0x01ba
 88c:	01ca                	.insn	2, 0x01ca
 88e:	01cc                	.insn	2, 0x01cc
 890:	01cc                	.insn	2, 0x01cc
 892:	01cd                	.insn	2, 0x01cd
 894:	c004                	.insn	2, 0xc004
 896:	0603c403          	lbu	s0,96(t2)
 89a:	007d                	.insn	2, 0x007d
 89c:	007a                	.insn	2, 0x007a
 89e:	9f1d                	.insn	2, 0x9f1d
 8a0:	c404                	.insn	2, 0xc404
 8a2:	0103d003          	lhu	zero,16(t2)
 8a6:	045d                	.insn	2, 0x045d
 8a8:	03d4                	.insn	2, 0x03d4
 8aa:	03fc                	.insn	2, 0x03fc
 8ac:	5d01                	.insn	2, 0x5d01
 8ae:	ac04                	.insn	2, 0xac04
 8b0:	b404                	.insn	2, 0xb404
 8b2:	0104                	.insn	2, 0x0104
 8b4:	045d                	.insn	2, 0x045d
 8b6:	04b4                	.insn	2, 0x04b4
 8b8:	04b8                	.insn	2, 0x04b8
 8ba:	40007f0b          	.insn	4, 0x40007f0b
 8be:	7b25                	.insn	2, 0x7b25
 8c0:	2100                	.insn	2, 0x2100
 8c2:	007e                	.insn	2, 0x007e
 8c4:	9f22                	.insn	2, 0x9f22
 8c6:	b500                	.insn	2, 0xb500
 8c8:	ba01                	.insn	2, 0xba01
 8ca:	ba01                	.insn	2, 0xba01
 8cc:	bd01                	.insn	2, 0xbd01
 8ce:	be01                	.insn	2, 0xbe01
 8d0:	c701                	.insn	2, 0xc701
 8d2:	c701                	.insn	2, 0xc701
 8d4:	ca01                	.insn	2, 0xca01
 8d6:	cd01                	.insn	2, 0xcd01
 8d8:	cf01                	.insn	2, 0xcf01
 8da:	0401                	.insn	2, 0x0401
 8dc:	03ec                	.insn	2, 0x03ec
 8de:	03fc                	.insn	2, 0x03fc
 8e0:	7d06                	.insn	2, 0x7d06
 8e2:	7a00                	.insn	2, 0x7a00
 8e4:	1d00                	.insn	2, 0x1d00
 8e6:	049f 03fc 0484      	.insn	6, 0x048403fc049f
 8ec:	5d01                	.insn	2, 0x5d01
 8ee:	8804                	.insn	2, 0x8804
 8f0:	a404                	.insn	2, 0xa404
 8f2:	0104                	.insn	2, 0x0104
 8f4:	045f 04a4 04ac      	.insn	6, 0x04ac04a4045f
 8fa:	5c01                	.insn	2, 0x5c01
 8fc:	b804                	.insn	2, 0xb804
 8fe:	c004                	.insn	2, 0xc004
 900:	0104                	.insn	2, 0x0104
 902:	005f 01ab 01bb      	.insn	6, 0x01bb01ab005f
 908:	01c701bb          	.insn	4, 0x01c701bb
 90c:	01ca                	.insn	2, 0x01ca
 90e:	01cd                	.insn	2, 0x01cd
 910:	01cd                	.insn	2, 0x01cd
 912:	01d0                	.insn	2, 0x01d0
 914:	c804                	.insn	2, 0xc804
 916:	01048003          	lb	zero,16(s1)
 91a:	0456                	.insn	2, 0x0456
 91c:	0480                	.insn	2, 0x0480
 91e:	04a4                	.insn	2, 0x04a4
 920:	5c01                	.insn	2, 0x5c01
 922:	ac04                	.insn	2, 0xac04
 924:	b804                	.insn	2, 0xb804
 926:	0104                	.insn	2, 0x0104
 928:	0456                	.insn	2, 0x0456
 92a:	04b8                	.insn	2, 0x04b8
 92c:	04c4                	.insn	2, 0x04c4
 92e:	5c01                	.insn	2, 0x5c01
 930:	db00                	.insn	2, 0xdb00
 932:	ea01                	.insn	2, 0xea01
 934:	ea01                	.insn	2, 0xea01
 936:	eb01                	.insn	2, 0xeb01
 938:	ec01                	.insn	2, 0xec01
 93a:	f701                	.insn	2, 0xf701
 93c:	0401                	.insn	2, 0x0401
 93e:	04dc                	.insn	2, 0x04dc
 940:	059c                	.insn	2, 0x059c
 942:	5d01                	.insn	2, 0x5d01
 944:	9c04                	.insn	2, 0x9c04
 946:	a005                	.insn	2, 0xa005
 948:	0105                	.insn	2, 0x0105
 94a:	0461                	.insn	2, 0x0461
 94c:	05a8                	.insn	2, 0x05a8
 94e:	05c8                	.insn	2, 0x05c8
 950:	5d01                	.insn	2, 0x5d01
 952:	df00                	.insn	2, 0xdf00
 954:	e801                	.insn	2, 0xe801
 956:	f101                	.insn	2, 0xf101
 958:	fc01                	.insn	2, 0xfc01
 95a:	0401                	.insn	2, 0x0401
 95c:	04f0                	.insn	2, 0x04f0
 95e:	0594                	.insn	2, 0x0594
 960:	5f01                	.insn	2, 0x5f01
 962:	bc04                	.insn	2, 0xbc04
 964:	d805                	.insn	2, 0xd805
 966:	0105                	.insn	2, 0x0105
 968:	005f 02c3 02d4      	.insn	6, 0x02d402c3005f
 96e:	a004                	.insn	2, 0xa004
 970:	0107c407          	.insn	4, 0x0107c407
 974:	005c                	.insn	2, 0x005c
 976:	02c4                	.insn	2, 0x02c4
 978:	02c9                	.insn	2, 0x02c9
 97a:	a004                	.insn	2, 0xa004
 97c:	1007a807          	.insn	4, 0x1007a807
 980:	008c                	.insn	2, 0x008c
 982:	ff0a                	.insn	2, 0xff0a
 984:	007d1aff 1affff0a 	.insn	12, 0x9f2224401affff0a007d1aff
 98c:	9f222440 
 990:	8900                	.insn	2, 0x8900
 992:	b802                	.insn	2, 0xb802
 994:	d602                	.insn	2, 0xd602
 996:	dc02                	.insn	2, 0xdc02
 998:	0402                	.insn	2, 0x0402
 99a:	05f0                	.insn	2, 0x05f0
 99c:	06f4                	.insn	2, 0x06f4
 99e:	6c01                	.insn	2, 0x6c01
 9a0:	c804                	.insn	2, 0xc804
 9a2:	0107e007          	.insn	4, 0x0107e007
 9a6:	006c                	.insn	2, 0x006c
 9a8:	028a                	.insn	2, 0x028a
 9aa:	029e                	.insn	2, 0x029e
 9ac:	029e                	.insn	2, 0x029e
 9ae:	02b5                	.insn	2, 0x02b5
 9b0:	02d6                	.insn	2, 0x02d6
 9b2:	02d9                	.insn	2, 0x02d9
 9b4:	02d9                	.insn	2, 0x02d9
 9b6:	02dc                	.insn	2, 0x02dc
 9b8:	f004                	.insn	2, 0xf004
 9ba:	b005                	.insn	2, 0xb005
 9bc:	0106                	.insn	2, 0x0106
 9be:	0456                	.insn	2, 0x0456
 9c0:	06b0                	.insn	2, 0x06b0
 9c2:	06e8                	.insn	2, 0x06e8
 9c4:	40008107          	.insn	4, 0x40008107
 9c8:	4024                	.insn	2, 0x4024
 9ca:	9f25                	.insn	2, 0x9f25
 9cc:	c804                	.insn	2, 0xc804
 9ce:	0107d407          	.insn	4, 0x0107d407
 9d2:	0456                	.insn	2, 0x0456
 9d4:	07d4                	.insn	2, 0x07d4
 9d6:	07e0                	.insn	2, 0x07e0
 9d8:	40008107          	.insn	4, 0x40008107
 9dc:	4024                	.insn	2, 0x4024
 9de:	9f25                	.insn	2, 0x9f25
 9e0:	8c00                	.insn	2, 0x8c00
 9e2:	9202                	.insn	2, 0x9202
 9e4:	9202                	.insn	2, 0x9202
 9e6:	9602                	.insn	2, 0x9602
 9e8:	9602                	.insn	2, 0x9602
 9ea:	a902                	.insn	2, 0xa902
 9ec:	d602                	.insn	2, 0xd602
 9ee:	d702                	.insn	2, 0xd702
 9f0:	d702                	.insn	2, 0xd702
 9f2:	dc02                	.insn	2, 0xdc02
 9f4:	0402                	.insn	2, 0x0402
 9f6:	05f0                	.insn	2, 0x05f0
 9f8:	0688                	.insn	2, 0x0688
 9fa:	5f01                	.insn	2, 0x5f01
 9fc:	8804                	.insn	2, 0x8804
 9fe:	9806                	.insn	2, 0x9806
 a00:	0306                	.insn	2, 0x0306
 a02:	7f7f                	.insn	2, 0x7f7f
 a04:	049f 0698 06d0      	.insn	6, 0x06d00698049f
 a0a:	5f01                	.insn	2, 0x5f01
 a0c:	c804                	.insn	2, 0xc804
 a0e:	0307cc07          	.insn	4, 0x0307cc07
 a12:	7f7f                	.insn	2, 0x7f7f
 a14:	049f 07cc 07e0      	.insn	6, 0x07e007cc049f
 a1a:	5f01                	.insn	2, 0x5f01
 a1c:	9a00                	.insn	2, 0x9a00
 a1e:	a402                	.insn	2, 0xa402
 a20:	a402                	.insn	2, 0xa402
 a22:	a802                	.insn	2, 0xa802
 a24:	a802                	.insn	2, 0xa802
 a26:	b202                	.insn	2, 0xb202
 a28:	d902                	.insn	2, 0xd902
 a2a:	da02                	.insn	2, 0xda02
 a2c:	da02                	.insn	2, 0xda02
 a2e:	dc02                	.insn	2, 0xdc02
 a30:	0402                	.insn	2, 0x0402
 a32:	06a0                	.insn	2, 0x06a0
 a34:	06bc                	.insn	2, 0x06bc
 a36:	5b01                	.insn	2, 0x5b01
 a38:	bc04                	.insn	2, 0xbc04
 a3a:	cc06                	.insn	2, 0xcc06
 a3c:	0306                	.insn	2, 0x0306
 a3e:	049f7f7b          	.insn	4, 0x049f7f7b
 a42:	06cc                	.insn	2, 0x06cc
 a44:	06dc                	.insn	2, 0x06dc
 a46:	5b01                	.insn	2, 0x5b01
 a48:	d404                	.insn	2, 0xd404
 a4a:	0307d807          	.insn	4, 0x0307d807
 a4e:	049f7f7b          	.insn	4, 0x049f7f7b
 a52:	07d8                	.insn	2, 0x07d8
 a54:	07e0                	.insn	2, 0x07e0
 a56:	5b01                	.insn	2, 0x5b01
 a58:	8b00                	.insn	2, 0x8b00
 a5a:	8d02                	.insn	2, 0x8d02
 a5c:	8d02                	.insn	2, 0x8d02
 a5e:	8f02                	.insn	2, 0x8f02
 a60:	9002                	.insn	2, 0x9002
 a62:	9d02                	.insn	2, 0x9d02
 a64:	d602                	.insn	2, 0xd602
 a66:	d802                	.insn	2, 0xd802
 a68:	d802                	.insn	2, 0xd802
 a6a:	d902                	.insn	2, 0xd902
 a6c:	0402                	.insn	2, 0x0402
 a6e:	05f0                	.insn	2, 0x05f0
 a70:	05f4                	.insn	2, 0x05f4
 a72:	7d06                	.insn	2, 0x7d06
 a74:	8c00                	.insn	2, 0x8c00
 a76:	1d00                	.insn	2, 0x1d00
 a78:	049f 05f4 0680      	.insn	6, 0x068005f4049f
 a7e:	5d01                	.insn	2, 0x5d01
 a80:	8404                	.insn	2, 0x8404
 a82:	ac06                	.insn	2, 0xac06
 a84:	0106                	.insn	2, 0x0106
 a86:	045d                	.insn	2, 0x045d
 a88:	07c8                	.insn	2, 0x07c8
 a8a:	07d0                	.insn	2, 0x07d0
 a8c:	5d01                	.insn	2, 0x5d01
 a8e:	d004                	.insn	2, 0xd004
 a90:	0b07d407          	.insn	4, 0x0b07d407
 a94:	007e                	.insn	2, 0x007e
 a96:	2540                	.insn	2, 0x2540
 a98:	8121007b          	.insn	4, 0x8121007b
 a9c:	2200                	.insn	2, 0x2200
 a9e:	009f 0298 029d      	.insn	6, 0x029d0298009f
 aa4:	029d                	.insn	2, 0x029d
 aa6:	02a0                	.insn	2, 0x02a0
 aa8:	02a1                	.insn	2, 0x02a1
 aaa:	02d6                	.insn	2, 0x02d6
 aac:	02d9                	.insn	2, 0x02d9
 aae:	9c0402db          	.insn	4, 0x9c0402db
 ab2:	ac06                	.insn	2, 0xac06
 ab4:	0606                	.insn	2, 0x0606
 ab6:	007d                	.insn	2, 0x007d
 ab8:	008c                	.insn	2, 0x008c
 aba:	9f1d                	.insn	2, 0x9f1d
 abc:	ac04                	.insn	2, 0xac04
 abe:	b406                	.insn	2, 0xb406
 ac0:	0106                	.insn	2, 0x0106
 ac2:	045d                	.insn	2, 0x045d
 ac4:	06b8                	.insn	2, 0x06b8
 ac6:	07c8                	.insn	2, 0x07c8
 ac8:	5e01                	.insn	2, 0x5e01
 aca:	d404                	.insn	2, 0xd404
 acc:	0107dc07          	.insn	4, 0x0107dc07
 ad0:	005e                	.insn	2, 0x005e
 ad2:	028e                	.insn	2, 0x028e
 ad4:	029e                	.insn	2, 0x029e
 ad6:	029e                	.insn	2, 0x029e
 ad8:	02d602b3          	mul	t0,a2,a3
 adc:	02d9                	.insn	2, 0x02d9
 ade:	02d9                	.insn	2, 0x02d9
 ae0:	02dc                	.insn	2, 0x02dc
 ae2:	f804                	.insn	2, 0xf804
 ae4:	b005                	.insn	2, 0xb005
 ae6:	0106                	.insn	2, 0x0106
 ae8:	046d                	.insn	2, 0x046d
 aea:	06b0                	.insn	2, 0x06b0
 aec:	06e0                	.insn	2, 0x06e0
 aee:	5601                	.insn	2, 0x5601
 af0:	c804                	.insn	2, 0xc804
 af2:	0107d407          	.insn	4, 0x0107d407
 af6:	046d                	.insn	2, 0x046d
 af8:	07d4                	.insn	2, 0x07d4
 afa:	07e0                	.insn	2, 0x07e0
 afc:	5601                	.insn	2, 0x5601
 afe:	b800                	.insn	2, 0xb800
 b00:	c902                	.insn	2, 0xc902
 b02:	0402                	.insn	2, 0x0402
 b04:	06f4                	.insn	2, 0x06f4
 b06:	07a8                	.insn	2, 0x07a8
 b08:	6c01                	.insn	2, 0x6c01
 b0a:	b900                	.insn	2, 0xb900
 b0c:	bb02                	.insn	2, 0xbb02
 b0e:	bb02                	.insn	2, 0xbb02
 b10:	bc02                	.insn	2, 0xbc02
 b12:	bf02                	.insn	2, 0xbf02
 b14:	ca02                	.insn	2, 0xca02
 b16:	0402                	.insn	2, 0x0402
 b18:	06f4                	.insn	2, 0x06f4
 b1a:	0780                	.insn	2, 0x0780
 b1c:	7b06                	.insn	2, 0x7b06
 b1e:	7c00                	.insn	2, 0x7c00
 b20:	1e00                	.insn	2, 0x1e00
 b22:	049f 0780 0784      	.insn	6, 0x07840780049f
 b28:	5b01                	.insn	2, 0x5b01
 b2a:	8c04                	.insn	2, 0x8c04
 b2c:	0107ac07          	.insn	4, 0x0107ac07
 b30:	005d                	.insn	2, 0x005d
 b32:	02ba                	.insn	2, 0x02ba
 b34:	02d6                	.insn	2, 0x02d6
 b36:	f804                	.insn	2, 0xf804
 b38:	c806                	.insn	2, 0xc806
 b3a:	00560107          	.insn	4, 0x00560107
 b3e:	02bd                	.insn	2, 0x02bd
 b40:	02d6                	.insn	2, 0x02d6
 b42:	8c04                	.insn	2, 0x8c04
 b44:	0107c807          	.insn	4, 0x0107c807
 b48:	0061                	.insn	2, 0x0061
 b4a:	02b4                	.insn	2, 0x02b4
 b4c:	e40402bb          	.insn	4, 0xe40402bb
 b50:	8006                	.insn	2, 0x8006
 b52:	005b0107          	.insn	4, 0x005b0107
 b56:	02b6                	.insn	2, 0x02b6
 b58:	02ba                	.insn	2, 0x02ba
 b5a:	ec04                	.insn	2, 0xec04
 b5c:	f806                	.insn	2, 0xf806
 b5e:	0106                	.insn	2, 0x0106
 b60:	0056                	.insn	2, 0x0056
 b62:	02b5                	.insn	2, 0x02b5
 b64:	02bd                	.insn	2, 0x02bd
 b66:	02bd                	.insn	2, 0x02bd
 b68:	02d0                	.insn	2, 0x02d0
 b6a:	02d0                	.insn	2, 0x02d0
 b6c:	02d6                	.insn	2, 0x02d6
 b6e:	e804                	.insn	2, 0xe804
 b70:	8c06                	.insn	2, 0x8c06
 b72:	04610107          	.insn	4, 0x04610107
 b76:	078c                	.insn	2, 0x078c
 b78:	07c4                	.insn	2, 0x07c4
 b7a:	7f05                	.insn	2, 0x7f05
 b7c:	4000                	.insn	2, 0x4000
 b7e:	9f25                	.insn	2, 0x9f25
 b80:	c404                	.insn	2, 0xc404
 b82:	0507c807          	.insn	4, 0x0507c807
 b86:	017f 2540 009f 02b7 	.insn	10, 0x02c102b7009f2540017f
 b8e:	02c1 
 b90:	f004                	.insn	2, 0xf004
 b92:	9406                	.insn	2, 0x9406
 b94:	005c0107          	.insn	4, 0x005c0107

Disassembly of section .debug_aranges:

00000000 <.debug_aranges>:
   0:	001c                	.insn	2, 0x001c
   2:	0000                	.insn	2, 0x0000
   4:	0002                	.insn	2, 0x0002
   6:	0000                	.insn	2, 0x0000
   8:	0000                	.insn	2, 0x0000
   a:	0004                	.insn	2, 0x0004
   c:	0000                	.insn	2, 0x0000
   e:	0000                	.insn	2, 0x0000
  10:	3450                	.insn	2, 0x3450
  12:	8000                	.insn	2, 0x8000
  14:	03ec                	.insn	2, 0x03ec
	...
  1e:	0000                	.insn	2, 0x0000
  20:	0014                	.insn	2, 0x0014
  22:	0000                	.insn	2, 0x0000
  24:	0002                	.insn	2, 0x0002
  26:	0850                	.insn	2, 0x0850
  28:	0000                	.insn	2, 0x0000
  2a:	0004                	.insn	2, 0x0004
	...

Disassembly of section .debug_rnglists:

00000000 <.debug_rnglists>:
   0:	0098                	.insn	2, 0x0098
   2:	0000                	.insn	2, 0x0000
   4:	0005                	.insn	2, 0x0005
   6:	0004                	.insn	2, 0x0004
   8:	0000                	.insn	2, 0x0000
   a:	0000                	.insn	2, 0x0000
   c:	0004                	.insn	2, 0x0004
   e:	01d8                	.insn	2, 0x01d8
  10:	e404                	.insn	2, 0xe404
  12:	ec01                	.insn	2, 0xec01
  14:	20040007          	.insn	4, 0x20040007
  18:	0444                	.insn	2, 0x0444
  1a:	504c                	.insn	2, 0x504c
  1c:	e404                	.insn	2, 0xe404
  1e:	f801                	.insn	2, 0xf801
  20:	0001                	.insn	2, 0x0001
  22:	6404                	.insn	2, 0x6404
  24:	01a0                	.insn	2, 0x01a0
  26:	f804                	.insn	2, 0xf804
  28:	8401                	.insn	2, 0x8401
  2a:	0002                	.insn	2, 0x0002
  2c:	a004                	.insn	2, 0xa004
  2e:	d801                	.insn	2, 0xd801
  30:	0401                	.insn	2, 0x0401
  32:	02c0                	.insn	2, 0x02c0
  34:	0380                	.insn	2, 0x0380
  36:	c404                	.insn	2, 0xc404
  38:	d804                	.insn	2, 0xd804
  3a:	0004                	.insn	2, 0x0004
  3c:	8404                	.insn	2, 0x8404
  3e:	8802                	.insn	2, 0x8802
  40:	0402                	.insn	2, 0x0402
  42:	028c                	.insn	2, 0x028c
  44:	02b0                	.insn	2, 0x02b0
  46:	8004                	.insn	2, 0x8004
  48:	00039803          	lh	a6,0(t2)
  4c:	ac04                	.insn	2, 0xac04
  4e:	0403bc03          	.insn	4, 0x0403bc03
  52:	03c0                	.insn	2, 0x03c0
  54:	04c4                	.insn	2, 0x04c4
  56:	0400                	.insn	2, 0x0400
  58:	04dc                	.insn	2, 0x04dc
  5a:	0584                	.insn	2, 0x0584
  5c:	8804                	.insn	2, 0x8804
  5e:	8c05                	.insn	2, 0x8c05
  60:	0405                	.insn	2, 0x0405
  62:	05a8                	.insn	2, 0x05a8
  64:	05c0                	.insn	2, 0x05c0
  66:	0400                	.insn	2, 0x0400
  68:	05a0                	.insn	2, 0x05a0
  6a:	05a8                	.insn	2, 0x05a8
  6c:	c004                	.insn	2, 0xc004
  6e:	c405                	.insn	2, 0xc405
  70:	07c80407          	.insn	4, 0x07c80407
  74:	07e0                	.insn	2, 0x07e0
  76:	0400                	.insn	2, 0x0400
  78:	05cc                	.insn	2, 0x05cc
  7a:	05d0                	.insn	2, 0x05d0
  7c:	d404                	.insn	2, 0xd404
  7e:	e005                	.insn	2, 0xe005
  80:	0405                	.insn	2, 0x0405
  82:	05f0                	.insn	2, 0x05f0
  84:	06d8                	.insn	2, 0x06d8
  86:	c804                	.insn	2, 0xc804
  88:	0007e007          	.insn	4, 0x0007e007
  8c:	d804                	.insn	2, 0xd804
  8e:	a006                	.insn	2, 0xa006
  90:	07a40407          	.insn	4, 0x07a40407
  94:	07b0                	.insn	2, 0x07b0
  96:	b404                	.insn	2, 0xb404
  98:	0007b807          	.insn	4, 0x0007b807

Disassembly of section .debug_line:

00000000 <.debug_line>:
   0:	00000b23          	sb	zero,22(zero) # 16 <_jump-0x80001fea>
   4:	0005                	.insn	2, 0x0005
   6:	0004                	.insn	2, 0x0004
   8:	00000033          	add	zero,zero,zero
   c:	0101                	.insn	2, 0x0101
   e:	f601                	.insn	2, 0xf601
  10:	0df2                	.insn	2, 0x0df2
  12:	0100                	.insn	2, 0x0100
  14:	0101                	.insn	2, 0x0101
  16:	0001                	.insn	2, 0x0001
  18:	0000                	.insn	2, 0x0000
  1a:	0001                	.insn	2, 0x0001
  1c:	0100                	.insn	2, 0x0100
  1e:	0101                	.insn	2, 0x0101
  20:	021f 0042 0000      	.insn	6, 0x0042021f
  26:	0000002b          	.insn	4, 0x002b
  2a:	0102                	.insn	2, 0x0102
  2c:	021f 030b 0000      	.insn	6, 0x030b021f
  32:	0000                	.insn	2, 0x0000
  34:	1700                	.insn	2, 0x1700
  36:	0000                	.insn	2, 0x0000
  38:	0100                	.insn	2, 0x0100
  3a:	0021                	.insn	2, 0x0021
  3c:	0000                	.insn	2, 0x0000
  3e:	0001                	.insn	2, 0x0001
  40:	0205                	.insn	2, 0x0205
  42:	3450                	.insn	2, 0x3450
  44:	8000                	.insn	2, 0x8000
  46:	010a9203          	lh	tp,16(s5)
  4a:	0105                	.insn	2, 0x0105
  4c:	0009                	.insn	2, 0x0009
  4e:	1800                	.insn	2, 0x1800
  50:	0305                	.insn	2, 0x0305
  52:	0009                	.insn	2, 0x0009
  54:	0300                	.insn	2, 0x0300
  56:	05017dcf          	.insn	4, 0x05017dcf
  5a:	0901                	.insn	2, 0x0901
  5c:	0000                	.insn	2, 0x0000
  5e:	0519                	.insn	2, 0x0519
  60:	00000903          	lb	s2,0(zero) # 0 <_jump-0x80002000>
  64:	0518                	.insn	2, 0x0518
  66:	00000903          	lb	s2,0(zero) # 0 <_jump-0x80002000>
  6a:	0518                	.insn	2, 0x0518
  6c:	00000903          	lb	s2,0(zero) # 0 <_jump-0x80002000>
  70:	0518                	.insn	2, 0x0518
  72:	00000903          	lb	s2,0(zero) # 0 <_jump-0x80002000>
  76:	0518                	.insn	2, 0x0518
  78:	00000903          	lb	s2,0(zero) # 0 <_jump-0x80002000>
  7c:	0518                	.insn	2, 0x0518
  7e:	00000903          	lb	s2,0(zero) # 0 <_jump-0x80002000>
  82:	0519                	.insn	2, 0x0519
  84:	00000903          	lb	s2,0(zero) # 0 <_jump-0x80002000>
  88:	0106                	.insn	2, 0x0106
  8a:	0605                	.insn	2, 0x0605
  8c:	0409                	.insn	2, 0x0409
  8e:	0600                	.insn	2, 0x0600
  90:	0518                	.insn	2, 0x0518
  92:	00000903          	lb	s2,0(zero) # 0 <_jump-0x80002000>
  96:	0106                	.insn	2, 0x0106
  98:	0605                	.insn	2, 0x0605
  9a:	0409                	.insn	2, 0x0409
  9c:	0600                	.insn	2, 0x0600
  9e:	0518                	.insn	2, 0x0518
  a0:	00000903          	lb	s2,0(zero) # 0 <_jump-0x80002000>
  a4:	0106                	.insn	2, 0x0106
  a6:	0605                	.insn	2, 0x0605
  a8:	0409                	.insn	2, 0x0409
  aa:	0600                	.insn	2, 0x0600
  ac:	0518                	.insn	2, 0x0518
  ae:	00000903          	lb	s2,0(zero) # 0 <_jump-0x80002000>
  b2:	0106                	.insn	2, 0x0106
  b4:	0605                	.insn	2, 0x0605
  b6:	0409                	.insn	2, 0x0409
  b8:	0600                	.insn	2, 0x0600
  ba:	053c                	.insn	2, 0x053c
  bc:	00000903          	lb	s2,0(zero) # 0 <_jump-0x80002000>
  c0:	0106                	.insn	2, 0x0106
  c2:	0605                	.insn	2, 0x0605
  c4:	0409                	.insn	2, 0x0409
  c6:	0600                	.insn	2, 0x0600
  c8:	0519                	.insn	2, 0x0519
  ca:	00080907          	.insn	4, 0x00080907
  ce:	0106                	.insn	2, 0x0106
  d0:	0a05                	.insn	2, 0x0a05
  d2:	0409                	.insn	2, 0x0409
  d4:	0600                	.insn	2, 0x0600
  d6:	0904051b          	.insn	4, 0x0904051b
  da:	0000                	.insn	2, 0x0000
  dc:	0501                	.insn	2, 0x0501
  de:	0904                	.insn	2, 0x0904
  e0:	0000                	.insn	2, 0x0000
  e2:	0501                	.insn	2, 0x0501
  e4:	0904                	.insn	2, 0x0904
  e6:	0000                	.insn	2, 0x0000
  e8:	0501                	.insn	2, 0x0501
  ea:	0904                	.insn	2, 0x0904
  ec:	0000                	.insn	2, 0x0000
  ee:	0200                	.insn	2, 0x0200
  f0:	0104                	.insn	2, 0x0104
  f2:	0501                	.insn	2, 0x0501
  f4:	0904                	.insn	2, 0x0904
  f6:	0004                	.insn	2, 0x0004
  f8:	0106                	.insn	2, 0x0106
  fa:	0405                	.insn	2, 0x0405
  fc:	0409                	.insn	2, 0x0409
  fe:	0000                	.insn	2, 0x0000
 100:	0402                	.insn	2, 0x0402
 102:	04050103          	lb	sp,64(a0) # 34346040 <_jump-0x4bcbbfc0>
 106:	0c09                	.insn	2, 0x0c09
 108:	0000                	.insn	2, 0x0000
 10a:	0402                	.insn	2, 0x0402
 10c:	060e                	.insn	2, 0x060e
 10e:	0501                	.insn	2, 0x0501
 110:	0904                	.insn	2, 0x0904
 112:	0010                	.insn	2, 0x0010
 114:	0106                	.insn	2, 0x0106
 116:	0405                	.insn	2, 0x0405
 118:	0009                	.insn	2, 0x0009
 11a:	0000                	.insn	2, 0x0000
 11c:	0402                	.insn	2, 0x0402
 11e:	0600                	.insn	2, 0x0600
 120:	0501                	.insn	2, 0x0501
 122:	0904                	.insn	2, 0x0904
 124:	0000                	.insn	2, 0x0000
 126:	0519                	.insn	2, 0x0519
 128:	0904                	.insn	2, 0x0904
 12a:	0000                	.insn	2, 0x0000
 12c:	0106                	.insn	2, 0x0106
 12e:	0705                	.insn	2, 0x0705
 130:	0409                	.insn	2, 0x0409
 132:	0100                	.insn	2, 0x0100
 134:	0705                	.insn	2, 0x0705
 136:	0409                	.insn	2, 0x0409
 138:	0000                	.insn	2, 0x0000
 13a:	0402                	.insn	2, 0x0402
 13c:	150e                	.insn	2, 0x150e
 13e:	0405                	.insn	2, 0x0405
 140:	0409                	.insn	2, 0x0409
 142:	0100                	.insn	2, 0x0100
 144:	0405                	.insn	2, 0x0405
 146:	0009                	.insn	2, 0x0009
 148:	0000                	.insn	2, 0x0000
 14a:	0402                	.insn	2, 0x0402
 14c:	0600                	.insn	2, 0x0600
 14e:	051e                	.insn	2, 0x051e
 150:	0908                	.insn	2, 0x0908
 152:	0000                	.insn	2, 0x0000
 154:	1806                	.insn	2, 0x1806
 156:	1105                	.insn	2, 0x1105
 158:	0409                	.insn	2, 0x0409
 15a:	0100                	.insn	2, 0x0100
 15c:	1e05                	.insn	2, 0x1e05
 15e:	0409                	.insn	2, 0x0409
 160:	1600                	.insn	2, 0x1600
 162:	0b05                	.insn	2, 0x0b05
 164:	0409                	.insn	2, 0x0409
 166:	0600                	.insn	2, 0x0600
 168:	0518                	.insn	2, 0x0518
 16a:	0908                	.insn	2, 0x0908
 16c:	0000                	.insn	2, 0x0000
 16e:	0106                	.insn	2, 0x0106
 170:	0b05                	.insn	2, 0x0b05
 172:	0409                	.insn	2, 0x0409
 174:	0600                	.insn	2, 0x0600
 176:	0518                	.insn	2, 0x0518
 178:	0908                	.insn	2, 0x0908
 17a:	0000                	.insn	2, 0x0000
 17c:	0106                	.insn	2, 0x0106
 17e:	0b05                	.insn	2, 0x0b05
 180:	0409                	.insn	2, 0x0409
 182:	0600                	.insn	2, 0x0600
 184:	051a                	.insn	2, 0x051a
 186:	0904                	.insn	2, 0x0904
 188:	0000                	.insn	2, 0x0000
 18a:	0501                	.insn	2, 0x0501
 18c:	0904                	.insn	2, 0x0904
 18e:	0000                	.insn	2, 0x0000
 190:	0501                	.insn	2, 0x0501
 192:	0904                	.insn	2, 0x0904
 194:	0000                	.insn	2, 0x0000
 196:	0501                	.insn	2, 0x0501
 198:	0904                	.insn	2, 0x0904
 19a:	0004                	.insn	2, 0x0004
 19c:	0501                	.insn	2, 0x0501
 19e:	0904                	.insn	2, 0x0904
 1a0:	000c                	.insn	2, 0x000c
 1a2:	0501                	.insn	2, 0x0501
 1a4:	0904                	.insn	2, 0x0904
 1a6:	0000                	.insn	2, 0x0000
 1a8:	0501                	.insn	2, 0x0501
 1aa:	0904                	.insn	2, 0x0904
 1ac:	0000                	.insn	2, 0x0000
 1ae:	0501                	.insn	2, 0x0501
 1b0:	0904                	.insn	2, 0x0904
 1b2:	0008                	.insn	2, 0x0008
 1b4:	0106                	.insn	2, 0x0106
 1b6:	0405                	.insn	2, 0x0405
 1b8:	0409                	.insn	2, 0x0409
 1ba:	0600                	.insn	2, 0x0600
 1bc:	0501                	.insn	2, 0x0501
 1be:	0904                	.insn	2, 0x0904
 1c0:	0004                	.insn	2, 0x0004
 1c2:	0106                	.insn	2, 0x0106
 1c4:	0405                	.insn	2, 0x0405
 1c6:	0409                	.insn	2, 0x0409
 1c8:	0600                	.insn	2, 0x0600
 1ca:	0501                	.insn	2, 0x0501
 1cc:	0904                	.insn	2, 0x0904
 1ce:	0004                	.insn	2, 0x0004
 1d0:	0200                	.insn	2, 0x0200
 1d2:	0104                	.insn	2, 0x0104
 1d4:	0501                	.insn	2, 0x0501
 1d6:	0904                	.insn	2, 0x0904
 1d8:	0000                	.insn	2, 0x0000
 1da:	0106                	.insn	2, 0x0106
 1dc:	0405                	.insn	2, 0x0405
 1de:	0409                	.insn	2, 0x0409
 1e0:	0000                	.insn	2, 0x0000
 1e2:	0402                	.insn	2, 0x0402
 1e4:	0600                	.insn	2, 0x0600
 1e6:	0501                	.insn	2, 0x0501
 1e8:	0904                	.insn	2, 0x0904
 1ea:	0000                	.insn	2, 0x0000
 1ec:	0200                	.insn	2, 0x0200
 1ee:	0304                	.insn	2, 0x0304
 1f0:	0501                	.insn	2, 0x0501
 1f2:	0904                	.insn	2, 0x0904
 1f4:	0008                	.insn	2, 0x0008
 1f6:	0200                	.insn	2, 0x0200
 1f8:	0104                	.insn	2, 0x0104
 1fa:	0106                	.insn	2, 0x0106
 1fc:	0405                	.insn	2, 0x0405
 1fe:	0409                	.insn	2, 0x0409
 200:	0000                	.insn	2, 0x0000
 202:	0402                	.insn	2, 0x0402
 204:	05010607          	.insn	4, 0x05010607
 208:	0904                	.insn	2, 0x0904
 20a:	0004                	.insn	2, 0x0004
 20c:	0200                	.insn	2, 0x0200
 20e:	0004                	.insn	2, 0x0004
 210:	0501                	.insn	2, 0x0501
 212:	0904                	.insn	2, 0x0904
 214:	0000                	.insn	2, 0x0000
 216:	0501                	.insn	2, 0x0501
 218:	0904                	.insn	2, 0x0904
 21a:	0000                	.insn	2, 0x0000
 21c:	0106                	.insn	2, 0x0106
 21e:	0405                	.insn	2, 0x0405
 220:	0009                	.insn	2, 0x0009
 222:	0600                	.insn	2, 0x0600
 224:	0541                	.insn	2, 0x0541
 226:	0904                	.insn	2, 0x0904
 228:	0000                	.insn	2, 0x0000
 22a:	0501                	.insn	2, 0x0501
 22c:	0904                	.insn	2, 0x0904
 22e:	0000                	.insn	2, 0x0000
 230:	0200                	.insn	2, 0x0200
 232:	0704                	.insn	2, 0x0704
 234:	0106                	.insn	2, 0x0106
 236:	0405                	.insn	2, 0x0405
 238:	0409                	.insn	2, 0x0409
 23a:	0000                	.insn	2, 0x0000
 23c:	0402                	.insn	2, 0x0402
 23e:	0600                	.insn	2, 0x0600
 240:	0501                	.insn	2, 0x0501
 242:	0904                	.insn	2, 0x0904
 244:	0000                	.insn	2, 0x0000
 246:	0200                	.insn	2, 0x0200
 248:	0704                	.insn	2, 0x0704
 24a:	0106                	.insn	2, 0x0106
 24c:	0405                	.insn	2, 0x0405
 24e:	0409                	.insn	2, 0x0409
 250:	0100                	.insn	2, 0x0100
 252:	0405                	.insn	2, 0x0405
 254:	0809                	.insn	2, 0x0809
 256:	0100                	.insn	2, 0x0100
 258:	0405                	.insn	2, 0x0405
 25a:	0409                	.insn	2, 0x0409
 25c:	0000                	.insn	2, 0x0000
 25e:	0402                	.insn	2, 0x0402
 260:	0600                	.insn	2, 0x0600
 262:	0501                	.insn	2, 0x0501
 264:	0904                	.insn	2, 0x0904
 266:	0000                	.insn	2, 0x0000
 268:	0200                	.insn	2, 0x0200
 26a:	0704                	.insn	2, 0x0704
 26c:	0106                	.insn	2, 0x0106
 26e:	0405                	.insn	2, 0x0405
 270:	0409                	.insn	2, 0x0409
 272:	0100                	.insn	2, 0x0100
 274:	0405                	.insn	2, 0x0405
 276:	0409                	.insn	2, 0x0409
 278:	0000                	.insn	2, 0x0000
 27a:	0402                	.insn	2, 0x0402
 27c:	0600                	.insn	2, 0x0600
 27e:	0501                	.insn	2, 0x0501
 280:	0904                	.insn	2, 0x0904
 282:	0000                	.insn	2, 0x0000
 284:	0200                	.insn	2, 0x0200
 286:	0704                	.insn	2, 0x0704
 288:	0106                	.insn	2, 0x0106
 28a:	0405                	.insn	2, 0x0405
 28c:	0409                	.insn	2, 0x0409
 28e:	0000                	.insn	2, 0x0000
 290:	0402                	.insn	2, 0x0402
 292:	0608                	.insn	2, 0x0608
 294:	0501                	.insn	2, 0x0501
 296:	0904                	.insn	2, 0x0904
 298:	0000                	.insn	2, 0x0000
 29a:	0106                	.insn	2, 0x0106
 29c:	0405                	.insn	2, 0x0405
 29e:	0409                	.insn	2, 0x0409
 2a0:	0000                	.insn	2, 0x0000
 2a2:	0402                	.insn	2, 0x0402
 2a4:	0600                	.insn	2, 0x0600
 2a6:	0501                	.insn	2, 0x0501
 2a8:	0904                	.insn	2, 0x0904
 2aa:	0000                	.insn	2, 0x0000
 2ac:	0200                	.insn	2, 0x0200
 2ae:	0a04                	.insn	2, 0x0a04
 2b0:	0501                	.insn	2, 0x0501
 2b2:	0904                	.insn	2, 0x0904
 2b4:	0004                	.insn	2, 0x0004
 2b6:	0106                	.insn	2, 0x0106
 2b8:	0405                	.insn	2, 0x0405
 2ba:	0409                	.insn	2, 0x0409
 2bc:	0000                	.insn	2, 0x0000
 2be:	0402                	.insn	2, 0x0402
 2c0:	0108                	.insn	2, 0x0108
 2c2:	0405                	.insn	2, 0x0405
 2c4:	0409                	.insn	2, 0x0409
 2c6:	0000                	.insn	2, 0x0000
 2c8:	0402                	.insn	2, 0x0402
 2ca:	060e                	.insn	2, 0x060e
 2cc:	0501                	.insn	2, 0x0501
 2ce:	0904                	.insn	2, 0x0904
 2d0:	0000                	.insn	2, 0x0000
 2d2:	0200                	.insn	2, 0x0200
 2d4:	0004                	.insn	2, 0x0004
 2d6:	0501                	.insn	2, 0x0501
 2d8:	0904                	.insn	2, 0x0904
 2da:	0000                	.insn	2, 0x0000
 2dc:	0200                	.insn	2, 0x0200
 2de:	0e04                	.insn	2, 0x0e04
 2e0:	0106                	.insn	2, 0x0106
 2e2:	0405                	.insn	2, 0x0405
 2e4:	0809                	.insn	2, 0x0809
 2e6:	0000                	.insn	2, 0x0000
 2e8:	0402                	.insn	2, 0x0402
 2ea:	0600                	.insn	2, 0x0600
 2ec:	0501                	.insn	2, 0x0501
 2ee:	0904                	.insn	2, 0x0904
 2f0:	0000                	.insn	2, 0x0000
 2f2:	0106                	.insn	2, 0x0106
 2f4:	0405                	.insn	2, 0x0405
 2f6:	0009                	.insn	2, 0x0009
 2f8:	0600                	.insn	2, 0x0600
 2fa:	057a                	.insn	2, 0x057a
 2fc:	00000903          	lb	s2,0(zero) # 0 <_jump-0x80002000>
 300:	0518                	.insn	2, 0x0518
 302:	00000903          	lb	s2,0(zero) # 0 <_jump-0x80002000>
 306:	0106                	.insn	2, 0x0106
 308:	0305                	.insn	2, 0x0305
 30a:	0009                	.insn	2, 0x0009
 30c:	7800                	.insn	2, 0x7800
 30e:	0105                	.insn	2, 0x0105
 310:	0c09                	.insn	2, 0x0c09
 312:	0000                	.insn	2, 0x0000
 314:	0402                	.insn	2, 0x0402
 316:	0304                	.insn	2, 0x0304
 318:	7e85                	.insn	2, 0x7e85
 31a:	0501                	.insn	2, 0x0501
 31c:	0904                	.insn	2, 0x0904
 31e:	0004                	.insn	2, 0x0004
 320:	0200                	.insn	2, 0x0200
 322:	0804                	.insn	2, 0x0804
 324:	0501                	.insn	2, 0x0501
 326:	0904                	.insn	2, 0x0904
 328:	0004                	.insn	2, 0x0004
 32a:	0200                	.insn	2, 0x0200
 32c:	0404                	.insn	2, 0x0404
 32e:	0501                	.insn	2, 0x0501
 330:	0904                	.insn	2, 0x0904
 332:	0004                	.insn	2, 0x0004
 334:	0200                	.insn	2, 0x0200
 336:	0704                	.insn	2, 0x0704
 338:	0501                	.insn	2, 0x0501
 33a:	0904                	.insn	2, 0x0904
 33c:	0008                	.insn	2, 0x0008
 33e:	0501                	.insn	2, 0x0501
 340:	0904                	.insn	2, 0x0904
 342:	0000                	.insn	2, 0x0000
 344:	0200                	.insn	2, 0x0200
 346:	0504                	.insn	2, 0x0504
 348:	2306                	.insn	2, 0x2306
 34a:	0405                	.insn	2, 0x0405
 34c:	0409                	.insn	2, 0x0409
 34e:	0600                	.insn	2, 0x0600
 350:	0501                	.insn	2, 0x0501
 352:	0904                	.insn	2, 0x0904
 354:	0004                	.insn	2, 0x0004
 356:	0501                	.insn	2, 0x0501
 358:	0904                	.insn	2, 0x0904
 35a:	0004                	.insn	2, 0x0004
 35c:	0501                	.insn	2, 0x0501
 35e:	0904                	.insn	2, 0x0904
 360:	0000                	.insn	2, 0x0000
 362:	0200                	.insn	2, 0x0200
 364:	0004                	.insn	2, 0x0004
 366:	2006                	.insn	2, 0x2006
 368:	0405                	.insn	2, 0x0405
 36a:	0009                	.insn	2, 0x0009
 36c:	0000                	.insn	2, 0x0000
 36e:	0402                	.insn	2, 0x0402
 370:	0605                	.insn	2, 0x0605
 372:	051a                	.insn	2, 0x051a
 374:	0904                	.insn	2, 0x0904
 376:	0004                	.insn	2, 0x0004
 378:	0501                	.insn	2, 0x0501
 37a:	0904                	.insn	2, 0x0904
 37c:	0000                	.insn	2, 0x0000
 37e:	0200                	.insn	2, 0x0200
 380:	0004                	.insn	2, 0x0004
 382:	0514                	.insn	2, 0x0514
 384:	00040907          	.insn	4, 0x00040907
 388:	1a06                	.insn	2, 0x1a06
 38a:	0405                	.insn	2, 0x0405
 38c:	0009                	.insn	2, 0x0009
 38e:	0100                	.insn	2, 0x0100
 390:	0405                	.insn	2, 0x0405
 392:	0009                	.insn	2, 0x0009
 394:	0100                	.insn	2, 0x0100
 396:	0405                	.insn	2, 0x0405
 398:	0009                	.insn	2, 0x0009
 39a:	0100                	.insn	2, 0x0100
 39c:	0405                	.insn	2, 0x0405
 39e:	0009                	.insn	2, 0x0009
 3a0:	0000                	.insn	2, 0x0000
 3a2:	0402                	.insn	2, 0x0402
 3a4:	0101                	.insn	2, 0x0101
 3a6:	0405                	.insn	2, 0x0405
 3a8:	0809                	.insn	2, 0x0809
 3aa:	0000                	.insn	2, 0x0000
 3ac:	0402                	.insn	2, 0x0402
 3ae:	05010603          	lb	a2,80(sp)
 3b2:	0904                	.insn	2, 0x0904
 3b4:	000c                	.insn	2, 0x000c
 3b6:	0200                	.insn	2, 0x0200
 3b8:	0e04                	.insn	2, 0x0e04
 3ba:	0106                	.insn	2, 0x0106
 3bc:	0405                	.insn	2, 0x0405
 3be:	1009                	.insn	2, 0x1009
 3c0:	0600                	.insn	2, 0x0600
 3c2:	0501                	.insn	2, 0x0501
 3c4:	0904                	.insn	2, 0x0904
 3c6:	0000                	.insn	2, 0x0000
 3c8:	0200                	.insn	2, 0x0200
 3ca:	0004                	.insn	2, 0x0004
 3cc:	0106                	.insn	2, 0x0106
 3ce:	0405                	.insn	2, 0x0405
 3d0:	0009                	.insn	2, 0x0009
 3d2:	1900                	.insn	2, 0x1900
 3d4:	0405                	.insn	2, 0x0405
 3d6:	0009                	.insn	2, 0x0009
 3d8:	0600                	.insn	2, 0x0600
 3da:	0501                	.insn	2, 0x0501
 3dc:	00040907          	.insn	4, 0x00040907
 3e0:	0501                	.insn	2, 0x0501
 3e2:	00040907          	.insn	4, 0x00040907
 3e6:	2006                	.insn	2, 0x2006
 3e8:	0805                	.insn	2, 0x0805
 3ea:	0009                	.insn	2, 0x0009
 3ec:	0600                	.insn	2, 0x0600
 3ee:	0501                	.insn	2, 0x0501
 3f0:	0004090b          	.insn	4, 0x0004090b
 3f4:	1806                	.insn	2, 0x1806
 3f6:	0805                	.insn	2, 0x0805
 3f8:	0009                	.insn	2, 0x0009
 3fa:	0600                	.insn	2, 0x0600
 3fc:	0501                	.insn	2, 0x0501
 3fe:	0004090b          	.insn	4, 0x0004090b
 402:	2406                	.insn	2, 0x2406
 404:	0805                	.insn	2, 0x0805
 406:	0009                	.insn	2, 0x0009
 408:	1c00                	.insn	2, 0x1c00
 40a:	0405                	.insn	2, 0x0405
 40c:	0009                	.insn	2, 0x0009
 40e:	0100                	.insn	2, 0x0100
 410:	0405                	.insn	2, 0x0405
 412:	0009                	.insn	2, 0x0009
 414:	0100                	.insn	2, 0x0100
 416:	0405                	.insn	2, 0x0405
 418:	0009                	.insn	2, 0x0009
 41a:	0100                	.insn	2, 0x0100
 41c:	0405                	.insn	2, 0x0405
 41e:	0409                	.insn	2, 0x0409
 420:	0100                	.insn	2, 0x0100
 422:	0405                	.insn	2, 0x0405
 424:	0c09                	.insn	2, 0x0c09
 426:	0100                	.insn	2, 0x0100
 428:	0405                	.insn	2, 0x0405
 42a:	0009                	.insn	2, 0x0009
 42c:	0100                	.insn	2, 0x0100
 42e:	0405                	.insn	2, 0x0405
 430:	0009                	.insn	2, 0x0009
 432:	0100                	.insn	2, 0x0100
 434:	0405                	.insn	2, 0x0405
 436:	0809                	.insn	2, 0x0809
 438:	0600                	.insn	2, 0x0600
 43a:	0501                	.insn	2, 0x0501
 43c:	0904                	.insn	2, 0x0904
 43e:	0004                	.insn	2, 0x0004
 440:	0106                	.insn	2, 0x0106
 442:	0405                	.insn	2, 0x0405
 444:	0409                	.insn	2, 0x0409
 446:	0600                	.insn	2, 0x0600
 448:	0501                	.insn	2, 0x0501
 44a:	0904                	.insn	2, 0x0904
 44c:	0004                	.insn	2, 0x0004
 44e:	0106                	.insn	2, 0x0106
 450:	0405                	.insn	2, 0x0405
 452:	0409                	.insn	2, 0x0409
 454:	0000                	.insn	2, 0x0000
 456:	0402                	.insn	2, 0x0402
 458:	0101                	.insn	2, 0x0101
 45a:	0405                	.insn	2, 0x0405
 45c:	0009                	.insn	2, 0x0009
 45e:	0600                	.insn	2, 0x0600
 460:	0501                	.insn	2, 0x0501
 462:	0904                	.insn	2, 0x0904
 464:	0004                	.insn	2, 0x0004
 466:	0200                	.insn	2, 0x0200
 468:	0004                	.insn	2, 0x0004
 46a:	0106                	.insn	2, 0x0106
 46c:	0405                	.insn	2, 0x0405
 46e:	0009                	.insn	2, 0x0009
 470:	0000                	.insn	2, 0x0000
 472:	0402                	.insn	2, 0x0402
 474:	04050103          	lb	sp,64(a0)
 478:	0809                	.insn	2, 0x0809
 47a:	0000                	.insn	2, 0x0000
 47c:	0402                	.insn	2, 0x0402
 47e:	0601                	.insn	2, 0x0601
 480:	0501                	.insn	2, 0x0501
 482:	0904                	.insn	2, 0x0904
 484:	0004                	.insn	2, 0x0004
 486:	0200                	.insn	2, 0x0200
 488:	0704                	.insn	2, 0x0704
 48a:	0106                	.insn	2, 0x0106
 48c:	0405                	.insn	2, 0x0405
 48e:	0409                	.insn	2, 0x0409
 490:	0600                	.insn	2, 0x0600
 492:	0501                	.insn	2, 0x0501
 494:	0904                	.insn	2, 0x0904
 496:	0004                	.insn	2, 0x0004
 498:	0501                	.insn	2, 0x0501
 49a:	0904                	.insn	2, 0x0904
 49c:	0000                	.insn	2, 0x0000
 49e:	0200                	.insn	2, 0x0200
 4a0:	0404                	.insn	2, 0x0404
 4a2:	05016203          	.insn	4, 0x05016203
 4a6:	0904                	.insn	2, 0x0904
 4a8:	0004                	.insn	2, 0x0004
 4aa:	0200                	.insn	2, 0x0200
 4ac:	0804                	.insn	2, 0x0804
 4ae:	0501                	.insn	2, 0x0501
 4b0:	0904                	.insn	2, 0x0904
 4b2:	0004                	.insn	2, 0x0004
 4b4:	0200                	.insn	2, 0x0200
 4b6:	0404                	.insn	2, 0x0404
 4b8:	0501                	.insn	2, 0x0501
 4ba:	0904                	.insn	2, 0x0904
 4bc:	0004                	.insn	2, 0x0004
 4be:	0200                	.insn	2, 0x0200
 4c0:	0704                	.insn	2, 0x0704
 4c2:	0501                	.insn	2, 0x0501
 4c4:	0904                	.insn	2, 0x0904
 4c6:	0008                	.insn	2, 0x0008
 4c8:	0200                	.insn	2, 0x0200
 4ca:	0e04                	.insn	2, 0x0e04
 4cc:	0501                	.insn	2, 0x0501
 4ce:	0904                	.insn	2, 0x0904
 4d0:	0004                	.insn	2, 0x0004
 4d2:	0200                	.insn	2, 0x0200
 4d4:	0004                	.insn	2, 0x0004
 4d6:	2906                	.insn	2, 0x2906
 4d8:	0805                	.insn	2, 0x0805
 4da:	0009                	.insn	2, 0x0009
 4dc:	1900                	.insn	2, 0x1900
 4de:	0805                	.insn	2, 0x0805
 4e0:	0009                	.insn	2, 0x0009
 4e2:	0600                	.insn	2, 0x0600
 4e4:	0501                	.insn	2, 0x0501
 4e6:	0004090b          	.insn	4, 0x0004090b
 4ea:	1806                	.insn	2, 0x1806
 4ec:	0805                	.insn	2, 0x0805
 4ee:	0009                	.insn	2, 0x0009
 4f0:	0600                	.insn	2, 0x0600
 4f2:	0501                	.insn	2, 0x0501
 4f4:	0004090b          	.insn	4, 0x0004090b
 4f8:	1806                	.insn	2, 0x1806
 4fa:	0805                	.insn	2, 0x0805
 4fc:	0009                	.insn	2, 0x0009
 4fe:	0600                	.insn	2, 0x0600
 500:	0501                	.insn	2, 0x0501
 502:	0911                	.insn	2, 0x0911
 504:	0004                	.insn	2, 0x0004
 506:	0501                	.insn	2, 0x0501
 508:	091e                	.insn	2, 0x091e
 50a:	0004                	.insn	2, 0x0004
 50c:	0518                	.insn	2, 0x0518
 50e:	0004090b          	.insn	4, 0x0004090b
 512:	0519                	.insn	2, 0x0519
 514:	0908                	.insn	2, 0x0908
 516:	0004                	.insn	2, 0x0004
 518:	0501                	.insn	2, 0x0501
 51a:	0908                	.insn	2, 0x0908
 51c:	0004                	.insn	2, 0x0004
 51e:	0501                	.insn	2, 0x0501
 520:	0908                	.insn	2, 0x0908
 522:	0004                	.insn	2, 0x0004
 524:	0501                	.insn	2, 0x0501
 526:	0908                	.insn	2, 0x0908
 528:	0004                	.insn	2, 0x0004
 52a:	0514                	.insn	2, 0x0514
 52c:	0004090b          	.insn	4, 0x0004090b
 530:	1806                	.insn	2, 0x1806
 532:	0805                	.insn	2, 0x0805
 534:	0009                	.insn	2, 0x0009
 536:	1900                	.insn	2, 0x1900
 538:	0805                	.insn	2, 0x0805
 53a:	0009                	.insn	2, 0x0009
 53c:	0100                	.insn	2, 0x0100
 53e:	0805                	.insn	2, 0x0805
 540:	0009                	.insn	2, 0x0009
 542:	0100                	.insn	2, 0x0100
 544:	0805                	.insn	2, 0x0805
 546:	0009                	.insn	2, 0x0009
 548:	0100                	.insn	2, 0x0100
 54a:	0805                	.insn	2, 0x0805
 54c:	0009                	.insn	2, 0x0009
 54e:	0100                	.insn	2, 0x0100
 550:	0805                	.insn	2, 0x0805
 552:	0009                	.insn	2, 0x0009
 554:	0100                	.insn	2, 0x0100
 556:	0805                	.insn	2, 0x0805
 558:	0009                	.insn	2, 0x0009
 55a:	0100                	.insn	2, 0x0100
 55c:	0805                	.insn	2, 0x0805
 55e:	0009                	.insn	2, 0x0009
 560:	0100                	.insn	2, 0x0100
 562:	0805                	.insn	2, 0x0805
 564:	0409                	.insn	2, 0x0409
 566:	0600                	.insn	2, 0x0600
 568:	0501                	.insn	2, 0x0501
 56a:	0908                	.insn	2, 0x0908
 56c:	0004                	.insn	2, 0x0004
 56e:	0106                	.insn	2, 0x0106
 570:	0805                	.insn	2, 0x0805
 572:	0809                	.insn	2, 0x0809
 574:	0600                	.insn	2, 0x0600
 576:	0501                	.insn	2, 0x0501
 578:	0908                	.insn	2, 0x0908
 57a:	0004                	.insn	2, 0x0004
 57c:	0106                	.insn	2, 0x0106
 57e:	0805                	.insn	2, 0x0805
 580:	0409                	.insn	2, 0x0409
 582:	0000                	.insn	2, 0x0000
 584:	0402                	.insn	2, 0x0402
 586:	0101                	.insn	2, 0x0101
 588:	0805                	.insn	2, 0x0805
 58a:	0009                	.insn	2, 0x0009
 58c:	0600                	.insn	2, 0x0600
 58e:	0501                	.insn	2, 0x0501
 590:	0908                	.insn	2, 0x0908
 592:	0004                	.insn	2, 0x0004
 594:	0200                	.insn	2, 0x0200
 596:	0004                	.insn	2, 0x0004
 598:	0106                	.insn	2, 0x0106
 59a:	0805                	.insn	2, 0x0805
 59c:	0009                	.insn	2, 0x0009
 59e:	0000                	.insn	2, 0x0000
 5a0:	0402                	.insn	2, 0x0402
 5a2:	08050103          	lb	sp,128(a0)
 5a6:	0809                	.insn	2, 0x0809
 5a8:	0000                	.insn	2, 0x0000
 5aa:	0402                	.insn	2, 0x0402
 5ac:	0601                	.insn	2, 0x0601
 5ae:	0501                	.insn	2, 0x0501
 5b0:	0908                	.insn	2, 0x0908
 5b2:	0004                	.insn	2, 0x0004
 5b4:	0200                	.insn	2, 0x0200
 5b6:	0704                	.insn	2, 0x0704
 5b8:	0106                	.insn	2, 0x0106
 5ba:	0805                	.insn	2, 0x0805
 5bc:	0409                	.insn	2, 0x0409
 5be:	0000                	.insn	2, 0x0000
 5c0:	0402                	.insn	2, 0x0402
 5c2:	0100                	.insn	2, 0x0100
 5c4:	0805                	.insn	2, 0x0805
 5c6:	0009                	.insn	2, 0x0009
 5c8:	0100                	.insn	2, 0x0100
 5ca:	0805                	.insn	2, 0x0805
 5cc:	0009                	.insn	2, 0x0009
 5ce:	0000                	.insn	2, 0x0000
 5d0:	0402                	.insn	2, 0x0402
 5d2:	05010607          	.insn	4, 0x05010607
 5d6:	0908                	.insn	2, 0x0908
 5d8:	0004                	.insn	2, 0x0004
 5da:	0200                	.insn	2, 0x0200
 5dc:	0004                	.insn	2, 0x0004
 5de:	0106                	.insn	2, 0x0106
 5e0:	0805                	.insn	2, 0x0805
 5e2:	0009                	.insn	2, 0x0009
 5e4:	0000                	.insn	2, 0x0000
 5e6:	0402                	.insn	2, 0x0402
 5e8:	05010607          	.insn	4, 0x05010607
 5ec:	0908                	.insn	2, 0x0908
 5ee:	0004                	.insn	2, 0x0004
 5f0:	0501                	.insn	2, 0x0501
 5f2:	0908                	.insn	2, 0x0908
 5f4:	0008                	.insn	2, 0x0008
 5f6:	0501                	.insn	2, 0x0501
 5f8:	0908                	.insn	2, 0x0908
 5fa:	0004                	.insn	2, 0x0004
 5fc:	0200                	.insn	2, 0x0200
 5fe:	0004                	.insn	2, 0x0004
 600:	0106                	.insn	2, 0x0106
 602:	0805                	.insn	2, 0x0805
 604:	0009                	.insn	2, 0x0009
 606:	0000                	.insn	2, 0x0000
 608:	0402                	.insn	2, 0x0402
 60a:	05010607          	.insn	4, 0x05010607
 60e:	0908                	.insn	2, 0x0908
 610:	0004                	.insn	2, 0x0004
 612:	0501                	.insn	2, 0x0501
 614:	0908                	.insn	2, 0x0908
 616:	0004                	.insn	2, 0x0004
 618:	0200                	.insn	2, 0x0200
 61a:	0004                	.insn	2, 0x0004
 61c:	0106                	.insn	2, 0x0106
 61e:	0805                	.insn	2, 0x0805
 620:	0009                	.insn	2, 0x0009
 622:	0000                	.insn	2, 0x0000
 624:	0402                	.insn	2, 0x0402
 626:	05010607          	.insn	4, 0x05010607
 62a:	0908                	.insn	2, 0x0908
 62c:	0004                	.insn	2, 0x0004
 62e:	0200                	.insn	2, 0x0200
 630:	0804                	.insn	2, 0x0804
 632:	0106                	.insn	2, 0x0106
 634:	0805                	.insn	2, 0x0805
 636:	0009                	.insn	2, 0x0009
 638:	0600                	.insn	2, 0x0600
 63a:	0501                	.insn	2, 0x0501
 63c:	0908                	.insn	2, 0x0908
 63e:	0004                	.insn	2, 0x0004
 640:	0200                	.insn	2, 0x0200
 642:	0004                	.insn	2, 0x0004
 644:	0106                	.insn	2, 0x0106
 646:	0805                	.insn	2, 0x0805
 648:	0009                	.insn	2, 0x0009
 64a:	0000                	.insn	2, 0x0000
 64c:	0402                	.insn	2, 0x0402
 64e:	010a                	.insn	2, 0x010a
 650:	0805                	.insn	2, 0x0805
 652:	0809                	.insn	2, 0x0809
 654:	0000                	.insn	2, 0x0000
 656:	0402                	.insn	2, 0x0402
 658:	0608                	.insn	2, 0x0608
 65a:	0501                	.insn	2, 0x0501
 65c:	0908                	.insn	2, 0x0908
 65e:	0004                	.insn	2, 0x0004
 660:	0200                	.insn	2, 0x0200
 662:	0e04                	.insn	2, 0x0e04
 664:	0106                	.insn	2, 0x0106
 666:	0805                	.insn	2, 0x0805
 668:	0409                	.insn	2, 0x0409
 66a:	0600                	.insn	2, 0x0600
 66c:	0501                	.insn	2, 0x0501
 66e:	0908                	.insn	2, 0x0908
 670:	0004                	.insn	2, 0x0004
 672:	0200                	.insn	2, 0x0200
 674:	0004                	.insn	2, 0x0004
 676:	0106                	.insn	2, 0x0106
 678:	0805                	.insn	2, 0x0805
 67a:	0009                	.insn	2, 0x0009
 67c:	0000                	.insn	2, 0x0000
 67e:	0402                	.insn	2, 0x0402
 680:	060e                	.insn	2, 0x060e
 682:	0501                	.insn	2, 0x0501
 684:	0908                	.insn	2, 0x0908
 686:	0004                	.insn	2, 0x0004
 688:	0200                	.insn	2, 0x0200
 68a:	0004                	.insn	2, 0x0004
 68c:	0106                	.insn	2, 0x0106
 68e:	0805                	.insn	2, 0x0805
 690:	0409                	.insn	2, 0x0409
 692:	0000                	.insn	2, 0x0000
 694:	0402                	.insn	2, 0x0402
 696:	0105                	.insn	2, 0x0105
 698:	0805                	.insn	2, 0x0805
 69a:	0409                	.insn	2, 0x0409
 69c:	0600                	.insn	2, 0x0600
 69e:	0501                	.insn	2, 0x0501
 6a0:	0908                	.insn	2, 0x0908
 6a2:	0004                	.insn	2, 0x0004
 6a4:	0501                	.insn	2, 0x0501
 6a6:	0908                	.insn	2, 0x0908
 6a8:	0004                	.insn	2, 0x0004
 6aa:	0200                	.insn	2, 0x0200
 6ac:	0c04                	.insn	2, 0x0c04
 6ae:	0106                	.insn	2, 0x0106
 6b0:	0805                	.insn	2, 0x0805
 6b2:	0409                	.insn	2, 0x0409
 6b4:	0600                	.insn	2, 0x0600
 6b6:	0501                	.insn	2, 0x0501
 6b8:	0908                	.insn	2, 0x0908
 6ba:	0004                	.insn	2, 0x0004
 6bc:	0501                	.insn	2, 0x0501
 6be:	0908                	.insn	2, 0x0908
 6c0:	0004                	.insn	2, 0x0004
 6c2:	0501                	.insn	2, 0x0501
 6c4:	0908                	.insn	2, 0x0908
 6c6:	0000                	.insn	2, 0x0000
 6c8:	0200                	.insn	2, 0x0200
 6ca:	0504                	.insn	2, 0x0504
 6cc:	1c06                	.insn	2, 0x1c06
 6ce:	0405                	.insn	2, 0x0405
 6d0:	0409                	.insn	2, 0x0409
 6d2:	0600                	.insn	2, 0x0600
 6d4:	0501                	.insn	2, 0x0501
 6d6:	0904                	.insn	2, 0x0904
 6d8:	0004                	.insn	2, 0x0004
 6da:	0501                	.insn	2, 0x0501
 6dc:	0904                	.insn	2, 0x0904
 6de:	0004                	.insn	2, 0x0004
 6e0:	0200                	.insn	2, 0x0200
 6e2:	0c04                	.insn	2, 0x0c04
 6e4:	0106                	.insn	2, 0x0106
 6e6:	0405                	.insn	2, 0x0405
 6e8:	0409                	.insn	2, 0x0409
 6ea:	0600                	.insn	2, 0x0600
 6ec:	0501                	.insn	2, 0x0501
 6ee:	0904                	.insn	2, 0x0904
 6f0:	0004                	.insn	2, 0x0004
 6f2:	0501                	.insn	2, 0x0501
 6f4:	0904                	.insn	2, 0x0904
 6f6:	0000                	.insn	2, 0x0000
 6f8:	0200                	.insn	2, 0x0200
 6fa:	0004                	.insn	2, 0x0004
 6fc:	2706                	.insn	2, 0x2706
 6fe:	0705                	.insn	2, 0x0705
 700:	0009                	.insn	2, 0x0009
 702:	0600                	.insn	2, 0x0600
 704:	0501                	.insn	2, 0x0501
 706:	090a                	.insn	2, 0x090a
 708:	0004                	.insn	2, 0x0004
 70a:	2a06                	.insn	2, 0x2a06
 70c:	0405                	.insn	2, 0x0405
 70e:	0009                	.insn	2, 0x0009
 710:	0100                	.insn	2, 0x0100
 712:	0405                	.insn	2, 0x0405
 714:	0009                	.insn	2, 0x0009
 716:	0100                	.insn	2, 0x0100
 718:	0405                	.insn	2, 0x0405
 71a:	0009                	.insn	2, 0x0009
 71c:	0100                	.insn	2, 0x0100
 71e:	0405                	.insn	2, 0x0405
 720:	0009                	.insn	2, 0x0009
 722:	0000                	.insn	2, 0x0000
 724:	0402                	.insn	2, 0x0402
 726:	0101                	.insn	2, 0x0101
 728:	0405                	.insn	2, 0x0405
 72a:	0809                	.insn	2, 0x0809
 72c:	0000                	.insn	2, 0x0000
 72e:	0402                	.insn	2, 0x0402
 730:	05010603          	lb	a2,80(sp)
 734:	0904                	.insn	2, 0x0904
 736:	000c                	.insn	2, 0x000c
 738:	0200                	.insn	2, 0x0200
 73a:	0e04                	.insn	2, 0x0e04
 73c:	0106                	.insn	2, 0x0106
 73e:	0405                	.insn	2, 0x0405
 740:	1409                	.insn	2, 0x1409
 742:	0000                	.insn	2, 0x0000
 744:	0402                	.insn	2, 0x0402
 746:	0600                	.insn	2, 0x0600
 748:	0518                	.insn	2, 0x0518
 74a:	00040907          	.insn	4, 0x00040907
 74e:	0200                	.insn	2, 0x0200
 750:	0e04                	.insn	2, 0x0e04
 752:	0516                	.insn	2, 0x0516
 754:	0904                	.insn	2, 0x0904
 756:	0004                	.insn	2, 0x0004
 758:	0501                	.insn	2, 0x0501
 75a:	0904                	.insn	2, 0x0904
 75c:	0000                	.insn	2, 0x0000
 75e:	0200                	.insn	2, 0x0200
 760:	0004                	.insn	2, 0x0004
 762:	0106                	.insn	2, 0x0106
 764:	0405                	.insn	2, 0x0405
 766:	0009                	.insn	2, 0x0009
 768:	1800                	.insn	2, 0x1800
 76a:	0405                	.insn	2, 0x0405
 76c:	0009                	.insn	2, 0x0009
 76e:	0600                	.insn	2, 0x0600
 770:	0501                	.insn	2, 0x0501
 772:	00040907          	.insn	4, 0x00040907
 776:	2106                	.insn	2, 0x2106
 778:	0805                	.insn	2, 0x0805
 77a:	0009                	.insn	2, 0x0009
 77c:	0000                	.insn	2, 0x0000
 77e:	0402                	.insn	2, 0x0402
 780:	0601                	.insn	2, 0x0601
 782:	0501                	.insn	2, 0x0501
 784:	0914                	.insn	2, 0x0914
 786:	0004                	.insn	2, 0x0004
 788:	0501                	.insn	2, 0x0501
 78a:	0914                	.insn	2, 0x0914
 78c:	0004                	.insn	2, 0x0004
 78e:	0200                	.insn	2, 0x0200
 790:	0004                	.insn	2, 0x0004
 792:	0501                	.insn	2, 0x0501
 794:	0004090b          	.insn	4, 0x0004090b
 798:	0200                	.insn	2, 0x0200
 79a:	0104                	.insn	2, 0x0104
 79c:	0501                	.insn	2, 0x0501
 79e:	0914                	.insn	2, 0x0914
 7a0:	0004                	.insn	2, 0x0004
 7a2:	0200                	.insn	2, 0x0200
 7a4:	0004                	.insn	2, 0x0004
 7a6:	053e                	.insn	2, 0x053e
 7a8:	0008090b          	.insn	4, 0x0008090b
 7ac:	0501                	.insn	2, 0x0501
 7ae:	0000090b          	.insn	4, 0x090b
 7b2:	0200                	.insn	2, 0x0200
 7b4:	0404                	.insn	2, 0x0404
 7b6:	05014e03          	lbu	t3,80(sp)
 7ba:	0904                	.insn	2, 0x0904
 7bc:	0004                	.insn	2, 0x0004
 7be:	0200                	.insn	2, 0x0200
 7c0:	0804                	.insn	2, 0x0804
 7c2:	0501                	.insn	2, 0x0501
 7c4:	0904                	.insn	2, 0x0904
 7c6:	0004                	.insn	2, 0x0004
 7c8:	0200                	.insn	2, 0x0200
 7ca:	0404                	.insn	2, 0x0404
 7cc:	0501                	.insn	2, 0x0501
 7ce:	0904                	.insn	2, 0x0904
 7d0:	0004                	.insn	2, 0x0004
 7d2:	0200                	.insn	2, 0x0200
 7d4:	0704                	.insn	2, 0x0704
 7d6:	0501                	.insn	2, 0x0501
 7d8:	0904                	.insn	2, 0x0904
 7da:	0008                	.insn	2, 0x0008
 7dc:	0200                	.insn	2, 0x0200
 7de:	0e04                	.insn	2, 0x0e04
 7e0:	0501                	.insn	2, 0x0501
 7e2:	0904                	.insn	2, 0x0904
 7e4:	0004                	.insn	2, 0x0004
 7e6:	0200                	.insn	2, 0x0200
 7e8:	0004                	.insn	2, 0x0004
 7ea:	3506                	.insn	2, 0x3506
 7ec:	0805                	.insn	2, 0x0805
 7ee:	0009                	.insn	2, 0x0009
 7f0:	1a00                	.insn	2, 0x1a00
 7f2:	0805                	.insn	2, 0x0805
 7f4:	0009                	.insn	2, 0x0009
 7f6:	1900                	.insn	2, 0x1900
 7f8:	0805                	.insn	2, 0x0805
 7fa:	0009                	.insn	2, 0x0009
 7fc:	0600                	.insn	2, 0x0600
 7fe:	0501                	.insn	2, 0x0501
 800:	091e                	.insn	2, 0x091e
 802:	0004                	.insn	2, 0x0004
 804:	0501                	.insn	2, 0x0501
 806:	0911                	.insn	2, 0x0911
 808:	0004                	.insn	2, 0x0004
 80a:	0501                	.insn	2, 0x0501
 80c:	0004090b          	.insn	4, 0x0004090b
 810:	1806                	.insn	2, 0x1806
 812:	0805                	.insn	2, 0x0805
 814:	0009                	.insn	2, 0x0009
 816:	0600                	.insn	2, 0x0600
 818:	051c                	.insn	2, 0x051c
 81a:	0908                	.insn	2, 0x0908
 81c:	0004                	.insn	2, 0x0004
 81e:	090b0513          	addi	a0,s6,144
 822:	0004                	.insn	2, 0x0004
 824:	0908051b          	.insn	4, 0x0908051b
 828:	0004                	.insn	2, 0x0004
 82a:	0501                	.insn	2, 0x0501
 82c:	0908                	.insn	2, 0x0908
 82e:	0004                	.insn	2, 0x0004
 830:	0501                	.insn	2, 0x0501
 832:	0908                	.insn	2, 0x0908
 834:	0004                	.insn	2, 0x0004
 836:	0514                	.insn	2, 0x0514
 838:	0911                	.insn	2, 0x0911
 83a:	0004                	.insn	2, 0x0004
 83c:	0501                	.insn	2, 0x0501
 83e:	091e                	.insn	2, 0x091e
 840:	0004                	.insn	2, 0x0004
 842:	0501                	.insn	2, 0x0501
 844:	0004090b          	.insn	4, 0x0004090b
 848:	0515                	.insn	2, 0x0515
 84a:	0004090b          	.insn	4, 0x0004090b
 84e:	1806                	.insn	2, 0x1806
 850:	0805                	.insn	2, 0x0805
 852:	0009                	.insn	2, 0x0009
 854:	1800                	.insn	2, 0x1800
 856:	0805                	.insn	2, 0x0805
 858:	0009                	.insn	2, 0x0009
 85a:	1800                	.insn	2, 0x1800
 85c:	0805                	.insn	2, 0x0805
 85e:	0009                	.insn	2, 0x0009
 860:	1900                	.insn	2, 0x1900
 862:	0805                	.insn	2, 0x0805
 864:	0009                	.insn	2, 0x0009
 866:	0100                	.insn	2, 0x0100
 868:	0805                	.insn	2, 0x0805
 86a:	0009                	.insn	2, 0x0009
 86c:	0100                	.insn	2, 0x0100
 86e:	0805                	.insn	2, 0x0805
 870:	0009                	.insn	2, 0x0009
 872:	0100                	.insn	2, 0x0100
 874:	0805                	.insn	2, 0x0805
 876:	0009                	.insn	2, 0x0009
 878:	0100                	.insn	2, 0x0100
 87a:	0805                	.insn	2, 0x0805
 87c:	0009                	.insn	2, 0x0009
 87e:	0100                	.insn	2, 0x0100
 880:	0805                	.insn	2, 0x0805
 882:	0009                	.insn	2, 0x0009
 884:	0100                	.insn	2, 0x0100
 886:	0805                	.insn	2, 0x0805
 888:	0009                	.insn	2, 0x0009
 88a:	0100                	.insn	2, 0x0100
 88c:	0805                	.insn	2, 0x0805
 88e:	0409                	.insn	2, 0x0409
 890:	0600                	.insn	2, 0x0600
 892:	0501                	.insn	2, 0x0501
 894:	0908                	.insn	2, 0x0908
 896:	0004                	.insn	2, 0x0004
 898:	0106                	.insn	2, 0x0106
 89a:	0805                	.insn	2, 0x0805
 89c:	0809                	.insn	2, 0x0809
 89e:	0600                	.insn	2, 0x0600
 8a0:	0501                	.insn	2, 0x0501
 8a2:	0908                	.insn	2, 0x0908
 8a4:	0004                	.insn	2, 0x0004
 8a6:	0106                	.insn	2, 0x0106
 8a8:	0805                	.insn	2, 0x0805
 8aa:	0409                	.insn	2, 0x0409
 8ac:	0000                	.insn	2, 0x0000
 8ae:	0402                	.insn	2, 0x0402
 8b0:	0101                	.insn	2, 0x0101
 8b2:	0805                	.insn	2, 0x0805
 8b4:	0009                	.insn	2, 0x0009
 8b6:	0600                	.insn	2, 0x0600
 8b8:	0501                	.insn	2, 0x0501
 8ba:	0908                	.insn	2, 0x0908
 8bc:	0004                	.insn	2, 0x0004
 8be:	0200                	.insn	2, 0x0200
 8c0:	0004                	.insn	2, 0x0004
 8c2:	0106                	.insn	2, 0x0106
 8c4:	0805                	.insn	2, 0x0805
 8c6:	0009                	.insn	2, 0x0009
 8c8:	0000                	.insn	2, 0x0000
 8ca:	0402                	.insn	2, 0x0402
 8cc:	08050103          	lb	sp,128(a0)
 8d0:	0809                	.insn	2, 0x0809
 8d2:	0000                	.insn	2, 0x0000
 8d4:	0402                	.insn	2, 0x0402
 8d6:	0601                	.insn	2, 0x0601
 8d8:	0501                	.insn	2, 0x0501
 8da:	0908                	.insn	2, 0x0908
 8dc:	0004                	.insn	2, 0x0004
 8de:	0200                	.insn	2, 0x0200
 8e0:	0704                	.insn	2, 0x0704
 8e2:	0106                	.insn	2, 0x0106
 8e4:	0805                	.insn	2, 0x0805
 8e6:	0409                	.insn	2, 0x0409
 8e8:	0000                	.insn	2, 0x0000
 8ea:	0402                	.insn	2, 0x0402
 8ec:	0100                	.insn	2, 0x0100
 8ee:	0805                	.insn	2, 0x0805
 8f0:	0009                	.insn	2, 0x0009
 8f2:	0100                	.insn	2, 0x0100
 8f4:	0805                	.insn	2, 0x0805
 8f6:	0009                	.insn	2, 0x0009
 8f8:	0000                	.insn	2, 0x0000
 8fa:	0402                	.insn	2, 0x0402
 8fc:	05010607          	.insn	4, 0x05010607
 900:	0908                	.insn	2, 0x0908
 902:	0004                	.insn	2, 0x0004
 904:	0200                	.insn	2, 0x0200
 906:	0004                	.insn	2, 0x0004
 908:	0106                	.insn	2, 0x0106
 90a:	0805                	.insn	2, 0x0805
 90c:	0009                	.insn	2, 0x0009
 90e:	0000                	.insn	2, 0x0000
 910:	0402                	.insn	2, 0x0402
 912:	05010607          	.insn	4, 0x05010607
 916:	0908                	.insn	2, 0x0908
 918:	0004                	.insn	2, 0x0004
 91a:	0501                	.insn	2, 0x0501
 91c:	0908                	.insn	2, 0x0908
 91e:	0008                	.insn	2, 0x0008
 920:	0501                	.insn	2, 0x0501
 922:	0908                	.insn	2, 0x0908
 924:	0004                	.insn	2, 0x0004
 926:	0200                	.insn	2, 0x0200
 928:	0004                	.insn	2, 0x0004
 92a:	0106                	.insn	2, 0x0106
 92c:	0805                	.insn	2, 0x0805
 92e:	0009                	.insn	2, 0x0009
 930:	0000                	.insn	2, 0x0000
 932:	0402                	.insn	2, 0x0402
 934:	05010607          	.insn	4, 0x05010607
 938:	0908                	.insn	2, 0x0908
 93a:	0004                	.insn	2, 0x0004
 93c:	0501                	.insn	2, 0x0501
 93e:	0908                	.insn	2, 0x0908
 940:	0004                	.insn	2, 0x0004
 942:	0200                	.insn	2, 0x0200
 944:	0004                	.insn	2, 0x0004
 946:	0106                	.insn	2, 0x0106
 948:	0805                	.insn	2, 0x0805
 94a:	0009                	.insn	2, 0x0009
 94c:	0000                	.insn	2, 0x0000
 94e:	0402                	.insn	2, 0x0402
 950:	05010607          	.insn	4, 0x05010607
 954:	0908                	.insn	2, 0x0908
 956:	0004                	.insn	2, 0x0004
 958:	0200                	.insn	2, 0x0200
 95a:	0804                	.insn	2, 0x0804
 95c:	0106                	.insn	2, 0x0106
 95e:	0805                	.insn	2, 0x0805
 960:	0009                	.insn	2, 0x0009
 962:	0600                	.insn	2, 0x0600
 964:	0501                	.insn	2, 0x0501
 966:	0908                	.insn	2, 0x0908
 968:	0004                	.insn	2, 0x0004
 96a:	0200                	.insn	2, 0x0200
 96c:	0004                	.insn	2, 0x0004
 96e:	0106                	.insn	2, 0x0106
 970:	0805                	.insn	2, 0x0805
 972:	0009                	.insn	2, 0x0009
 974:	0000                	.insn	2, 0x0000
 976:	0402                	.insn	2, 0x0402
 978:	010a                	.insn	2, 0x010a
 97a:	0805                	.insn	2, 0x0805
 97c:	0809                	.insn	2, 0x0809
 97e:	0000                	.insn	2, 0x0000
 980:	0402                	.insn	2, 0x0402
 982:	0608                	.insn	2, 0x0608
 984:	0501                	.insn	2, 0x0501
 986:	0908                	.insn	2, 0x0908
 988:	0004                	.insn	2, 0x0004
 98a:	0200                	.insn	2, 0x0200
 98c:	0e04                	.insn	2, 0x0e04
 98e:	0106                	.insn	2, 0x0106
 990:	0805                	.insn	2, 0x0805
 992:	0409                	.insn	2, 0x0409
 994:	0600                	.insn	2, 0x0600
 996:	0501                	.insn	2, 0x0501
 998:	0908                	.insn	2, 0x0908
 99a:	0008                	.insn	2, 0x0008
 99c:	0200                	.insn	2, 0x0200
 99e:	0004                	.insn	2, 0x0004
 9a0:	0106                	.insn	2, 0x0106
 9a2:	0805                	.insn	2, 0x0805
 9a4:	0009                	.insn	2, 0x0009
 9a6:	0100                	.insn	2, 0x0100
 9a8:	0805                	.insn	2, 0x0805
 9aa:	0009                	.insn	2, 0x0009
 9ac:	0600                	.insn	2, 0x0600
 9ae:	0501                	.insn	2, 0x0501
 9b0:	0908                	.insn	2, 0x0908
 9b2:	0000                	.insn	2, 0x0000
 9b4:	0106                	.insn	2, 0x0106
 9b6:	0805                	.insn	2, 0x0805
 9b8:	0009                	.insn	2, 0x0009
 9ba:	1800                	.insn	2, 0x1800
 9bc:	0805                	.insn	2, 0x0805
 9be:	0009                	.insn	2, 0x0009
 9c0:	0100                	.insn	2, 0x0100
 9c2:	0805                	.insn	2, 0x0805
 9c4:	0009                	.insn	2, 0x0009
 9c6:	0100                	.insn	2, 0x0100
 9c8:	0805                	.insn	2, 0x0805
 9ca:	0009                	.insn	2, 0x0009
 9cc:	0100                	.insn	2, 0x0100
 9ce:	0805                	.insn	2, 0x0805
 9d0:	0409                	.insn	2, 0x0409
 9d2:	0600                	.insn	2, 0x0600
 9d4:	0501                	.insn	2, 0x0501
 9d6:	0908                	.insn	2, 0x0908
 9d8:	0004                	.insn	2, 0x0004
 9da:	0501                	.insn	2, 0x0501
 9dc:	0908                	.insn	2, 0x0908
 9de:	0004                	.insn	2, 0x0004
 9e0:	0106                	.insn	2, 0x0106
 9e2:	0805                	.insn	2, 0x0805
 9e4:	0409                	.insn	2, 0x0409
 9e6:	0100                	.insn	2, 0x0100
 9e8:	0805                	.insn	2, 0x0805
 9ea:	0409                	.insn	2, 0x0409
 9ec:	0100                	.insn	2, 0x0100
 9ee:	0805                	.insn	2, 0x0805
 9f0:	0409                	.insn	2, 0x0409
 9f2:	0100                	.insn	2, 0x0100
 9f4:	0805                	.insn	2, 0x0805
 9f6:	0409                	.insn	2, 0x0409
 9f8:	0100                	.insn	2, 0x0100
 9fa:	0805                	.insn	2, 0x0805
 9fc:	0009                	.insn	2, 0x0009
 9fe:	0100                	.insn	2, 0x0100
 a00:	0805                	.insn	2, 0x0805
 a02:	0409                	.insn	2, 0x0409
 a04:	0100                	.insn	2, 0x0100
 a06:	0805                	.insn	2, 0x0805
 a08:	0809                	.insn	2, 0x0809
 a0a:	0600                	.insn	2, 0x0600
 a0c:	0501                	.insn	2, 0x0501
 a0e:	0908                	.insn	2, 0x0908
 a10:	0004                	.insn	2, 0x0004
 a12:	0501                	.insn	2, 0x0501
 a14:	0908                	.insn	2, 0x0908
 a16:	0008                	.insn	2, 0x0008
 a18:	0106                	.insn	2, 0x0106
 a1a:	0805                	.insn	2, 0x0805
 a1c:	0009                	.insn	2, 0x0009
 a1e:	0100                	.insn	2, 0x0100
 a20:	0805                	.insn	2, 0x0805
 a22:	0009                	.insn	2, 0x0009
 a24:	0100                	.insn	2, 0x0100
 a26:	0805                	.insn	2, 0x0805
 a28:	0409                	.insn	2, 0x0409
 a2a:	0000                	.insn	2, 0x0000
 a2c:	0402                	.insn	2, 0x0402
 a2e:	0101                	.insn	2, 0x0101
 a30:	0805                	.insn	2, 0x0805
 a32:	0409                	.insn	2, 0x0409
 a34:	0600                	.insn	2, 0x0600
 a36:	0501                	.insn	2, 0x0501
 a38:	0908                	.insn	2, 0x0908
 a3a:	0004                	.insn	2, 0x0004
 a3c:	0200                	.insn	2, 0x0200
 a3e:	0304                	.insn	2, 0x0304
 a40:	0106                	.insn	2, 0x0106
 a42:	0805                	.insn	2, 0x0805
 a44:	0809                	.insn	2, 0x0809
 a46:	0000                	.insn	2, 0x0000
 a48:	0402                	.insn	2, 0x0402
 a4a:	0100                	.insn	2, 0x0100
 a4c:	0805                	.insn	2, 0x0805
 a4e:	0009                	.insn	2, 0x0009
 a50:	0600                	.insn	2, 0x0600
 a52:	0501                	.insn	2, 0x0501
 a54:	0908                	.insn	2, 0x0908
 a56:	0000                	.insn	2, 0x0000
 a58:	0106                	.insn	2, 0x0106
 a5a:	0805                	.insn	2, 0x0805
 a5c:	0009                	.insn	2, 0x0009
 a5e:	1900                	.insn	2, 0x1900
 a60:	0805                	.insn	2, 0x0805
 a62:	0009                	.insn	2, 0x0009
 a64:	0600                	.insn	2, 0x0600
 a66:	0501                	.insn	2, 0x0501
 a68:	0004090b          	.insn	4, 0x0004090b
 a6c:	0200                	.insn	2, 0x0200
 a6e:	0304                	.insn	2, 0x0304
 a70:	0515                	.insn	2, 0x0515
 a72:	0908                	.insn	2, 0x0908
 a74:	0004                	.insn	2, 0x0004
 a76:	0501                	.insn	2, 0x0501
 a78:	0908                	.insn	2, 0x0908
 a7a:	0004                	.insn	2, 0x0004
 a7c:	0501                	.insn	2, 0x0501
 a7e:	0908                	.insn	2, 0x0908
 a80:	0004                	.insn	2, 0x0004
 a82:	0200                	.insn	2, 0x0200
 a84:	0004                	.insn	2, 0x0004
 a86:	0514                	.insn	2, 0x0514
 a88:	0004090b          	.insn	4, 0x0004090b
 a8c:	0200                	.insn	2, 0x0200
 a8e:	0304                	.insn	2, 0x0304
 a90:	051a                	.insn	2, 0x051a
 a92:	0908                	.insn	2, 0x0908
 a94:	0004                	.insn	2, 0x0004
 a96:	0200                	.insn	2, 0x0200
 a98:	0204                	.insn	2, 0x0204
 a9a:	0519                	.insn	2, 0x0519
 a9c:	0921                	.insn	2, 0x0921
 a9e:	0008                	.insn	2, 0x0008
 aa0:	0200                	.insn	2, 0x0200
 aa2:	0004                	.insn	2, 0x0004
 aa4:	1906                	.insn	2, 0x1906
 aa6:	0505                	.insn	2, 0x0505
 aa8:	0009                	.insn	2, 0x0009
 aaa:	0600                	.insn	2, 0x0600
 aac:	0501                	.insn	2, 0x0501
 aae:	00040907          	.insn	4, 0x00040907
 ab2:	1806                	.insn	2, 0x1806
 ab4:	0505                	.insn	2, 0x0505
 ab6:	0009                	.insn	2, 0x0009
 ab8:	0100                	.insn	2, 0x0100
 aba:	0505                	.insn	2, 0x0505
 abc:	0009                	.insn	2, 0x0009
 abe:	0100                	.insn	2, 0x0100
 ac0:	0505                	.insn	2, 0x0505
 ac2:	0009                	.insn	2, 0x0009
 ac4:	0100                	.insn	2, 0x0100
 ac6:	0505                	.insn	2, 0x0505
 ac8:	0009                	.insn	2, 0x0009
 aca:	0100                	.insn	2, 0x0100
 acc:	0505                	.insn	2, 0x0505
 ace:	0009                	.insn	2, 0x0009
 ad0:	0600                	.insn	2, 0x0600
 ad2:	0501                	.insn	2, 0x0501
 ad4:	0905                	.insn	2, 0x0905
 ad6:	0004                	.insn	2, 0x0004
 ad8:	0200                	.insn	2, 0x0200
 ada:	0504                	.insn	2, 0x0504
 adc:	1106                	.insn	2, 0x1106
 ade:	0805                	.insn	2, 0x0805
 ae0:	0409                	.insn	2, 0x0409
 ae2:	0600                	.insn	2, 0x0600
 ae4:	0501                	.insn	2, 0x0501
 ae6:	0908                	.insn	2, 0x0908
 ae8:	0004                	.insn	2, 0x0004
 aea:	0501                	.insn	2, 0x0501
 aec:	0908                	.insn	2, 0x0908
 aee:	0004                	.insn	2, 0x0004
 af0:	0200                	.insn	2, 0x0200
 af2:	0c04                	.insn	2, 0x0c04
 af4:	0106                	.insn	2, 0x0106
 af6:	0805                	.insn	2, 0x0805
 af8:	0409                	.insn	2, 0x0409
 afa:	0600                	.insn	2, 0x0600
 afc:	0501                	.insn	2, 0x0501
 afe:	0908                	.insn	2, 0x0908
 b00:	0004                	.insn	2, 0x0004
 b02:	0501                	.insn	2, 0x0501
 b04:	0908                	.insn	2, 0x0908
 b06:	0004                	.insn	2, 0x0004
 b08:	0501                	.insn	2, 0x0501
 b0a:	0908                	.insn	2, 0x0908
 b0c:	0000                	.insn	2, 0x0000
 b0e:	0200                	.insn	2, 0x0200
 b10:	0004                	.insn	2, 0x0004
 b12:	05014903          	lbu	s2,80(sp)
 b16:	00040907          	.insn	4, 0x00040907
 b1a:	0516                	.insn	2, 0x0516
 b1c:	02050007          	.insn	4, 0x02050007
 b20:	383c                	.insn	2, 0x383c
 b22:	8000                	.insn	2, 0x8000
 b24:	0100                	.insn	2, 0x0100
 b26:	4501                	.insn	2, 0x4501
 b28:	0000                	.insn	2, 0x0000
 b2a:	0500                	.insn	2, 0x0500
 b2c:	0400                	.insn	2, 0x0400
 b2e:	3300                	.insn	2, 0x3300
 b30:	0000                	.insn	2, 0x0000
 b32:	0100                	.insn	2, 0x0100
 b34:	0101                	.insn	2, 0x0101
 b36:	f2f6                	.insn	2, 0xf2f6
 b38:	000d                	.insn	2, 0x000d
 b3a:	0101                	.insn	2, 0x0101
 b3c:	0101                	.insn	2, 0x0101
 b3e:	0000                	.insn	2, 0x0000
 b40:	0100                	.insn	2, 0x0100
 b42:	0000                	.insn	2, 0x0000
 b44:	0101                	.insn	2, 0x0101
 b46:	1f01                	.insn	2, 0x1f01
 b48:	4202                	.insn	2, 0x4202
 b4a:	0000                	.insn	2, 0x0000
 b4c:	2b00                	.insn	2, 0x2b00
 b4e:	0000                	.insn	2, 0x0000
 b50:	0200                	.insn	2, 0x0200
 b52:	1f01                	.insn	2, 0x1f01
 b54:	0b02                	.insn	2, 0x0b02
 b56:	00000003          	lb	zero,0(zero) # 0 <_jump-0x80002000>
 b5a:	0000                	.insn	2, 0x0000
 b5c:	00000017          	auipc	zero,0x0
 b60:	2101                	.insn	2, 0x2101
 b62:	0000                	.insn	2, 0x0000
 b64:	0100                	.insn	2, 0x0100
 b66:	0500                	.insn	2, 0x0500
 b68:	0002                	.insn	2, 0x0002
 b6a:	0000                	.insn	2, 0x0000
 b6c:	0000                	.insn	2, 0x0000
 b6e:	0101                	.insn	2, 0x0101

Disassembly of section .debug_str:

00000000 <.debug_str>:
   0:	5f5f 6475 7669      	.insn	6, 0x766964755f5f
   6:	6964                	.insn	2, 0x6964
   8:	57440033          	.insn	4, 0x57440033
   c:	75727473          	csrrci	s0,0x757,4
  10:	63007463          	bgeu	zero,a6,638 <_jump-0x800019c8>
  14:	6c706d6f          	jal	s10,6eda <_jump-0x7fffb126>
  18:	7865                	.insn	2, 0x7865
  1a:	6620                	.insn	2, 0x6620
  1c:	6f6c                	.insn	2, 0x6f6c
  1e:	7461                	.insn	2, 0x7461
  20:	7300                	.insn	2, 0x7300
  22:	6f68                	.insn	2, 0x6f68
  24:	7472                	.insn	2, 0x7472
  26:	6920                	.insn	2, 0x6920
  28:	746e                	.insn	2, 0x746e
  2a:	4400                	.insn	2, 0x4400
  2c:	696e7557          	.insn	4, 0x696e7557
  30:	5f006e6f          	jal	t3,6620 <_jump-0x7fffb9e0>
  34:	645f 0030 5f5f      	.insn	6, 0x5f5f0030645f
  3a:	3164                	.insn	2, 0x3164
  3c:	4700                	.insn	2, 0x4700
  3e:	554e                	.insn	2, 0x554e
  40:	4320                	.insn	2, 0x4320
  42:	3332                	.insn	2, 0x3332
  44:	3120                	.insn	2, 0x3120
  46:	2e35                	.insn	2, 0x2e35
  48:	2e32                	.insn	2, 0x2e32
  4a:	2030                	.insn	2, 0x2030
  4c:	6d2d                	.insn	2, 0x6d2d
  4e:	646f6d63          	bltu	t5,t1,6a8 <_jump-0x80001958>
  52:	6c65                	.insn	2, 0x6c65
  54:	6d3d                	.insn	2, 0x6d3d
  56:	6465                	.insn	2, 0x6465
  58:	6f6c                	.insn	2, 0x6f6c
  5a:	6d2d2077          	.insn	4, 0x6d2d2077
  5e:	646f6d63          	bltu	t5,t1,6b8 <_jump-0x80001948>
  62:	6c65                	.insn	2, 0x6c65
  64:	6d3d                	.insn	2, 0x6d3d
  66:	6465                	.insn	2, 0x6465
  68:	6f6c                	.insn	2, 0x6f6c
  6a:	6d2d2077          	.insn	4, 0x6d2d2077
  6e:	6261                	.insn	2, 0x6261
  70:	3d69                	.insn	2, 0x3d69
  72:	6c69                	.insn	2, 0x6c69
  74:	3370                	.insn	2, 0x3370
  76:	2032                	.insn	2, 0x2032
  78:	6d2d                	.insn	2, 0x6d2d
  7a:	7369                	.insn	2, 0x7369
  7c:	2d61                	.insn	2, 0x2d61
  7e:	63657073          	csrci	0x636,10
  82:	323d                	.insn	2, 0x323d
  84:	3130                	.insn	2, 0x3130
  86:	3139                	.insn	2, 0x3139
  88:	3132                	.insn	2, 0x3132
  8a:	6d2d2033          	.insn	4, 0x6d2d2033
  8e:	7261                	.insn	2, 0x7261
  90:	723d6863          	bltu	s10,gp,7c0 <_jump-0x80001840>
  94:	3376                	.insn	2, 0x3376
  96:	6932                	.insn	2, 0x6932
  98:	5f6d                	.insn	2, 0x5f6d
  9a:	697a                	.insn	2, 0x697a
  9c:	5f727363          	bgeu	tp,s7,682 <_jump-0x8000197e>
  a0:	6d7a                	.insn	2, 0x6d7a
  a2:	756d                	.insn	2, 0x756d
  a4:	206c                	.insn	2, 0x206c
  a6:	672d                	.insn	2, 0x672d
  a8:	2d20                	.insn	2, 0x2d20
  aa:	2d20734f          	.insn	4, 0x2d20734f
  ae:	2d20324f          	.insn	4, 0x2d20324f
  b2:	2d20734f          	.insn	4, 0x2d20734f
  b6:	6266                	.insn	2, 0x6266
  b8:	6975                	.insn	2, 0x6975
  ba:	646c                	.insn	2, 0x646c
  bc:	6e69                	.insn	2, 0x6e69
  be:	696c2d67          	.insn	4, 0x696c2d67
  c2:	6762                	.insn	2, 0x6762
  c4:	2d206363          	bltu	zero,s2,38a <_jump-0x80001c76>
  c8:	6e66                	.insn	2, 0x6e66
  ca:	74732d6f          	jal	s10,33010 <_jump-0x7ffceff0>
  ce:	6361                	.insn	2, 0x6361
  d0:	72702d6b          	.insn	4, 0x72702d6b
  d4:	6365746f          	jal	s0,5770a <_jump-0x7ffaa8f6>
  d8:	6f74                	.insn	2, 0x6f74
  da:	2072                	.insn	2, 0x2072
  dc:	662d                	.insn	2, 0x662d
  de:	7361                	.insn	2, 0x7361
  e0:	6e79                	.insn	2, 0x6e79
  e2:	6f726863          	bltu	tp,s7,7d2 <_jump-0x8000182e>
  e6:	6f6e                	.insn	2, 0x6f6e
  e8:	7375                	.insn	2, 0x7375
  ea:	752d                	.insn	2, 0x752d
  ec:	776e                	.insn	2, 0x776e
  ee:	6e69                	.insn	2, 0x6e69
  f0:	2d64                	.insn	2, 0x2d64
  f2:	6174                	.insn	2, 0x6174
  f4:	6c62                	.insn	2, 0x6c62
  f6:	7365                	.insn	2, 0x7365
  f8:	2d20                	.insn	2, 0x2d20
  fa:	7666                	.insn	2, 0x7666
  fc:	7369                	.insn	2, 0x7369
  fe:	6269                	.insn	2, 0x6269
 100:	6c69                	.insn	2, 0x6c69
 102:	7469                	.insn	2, 0x7469
 104:	3d79                	.insn	2, 0x3d79
 106:	6968                	.insn	2, 0x6968
 108:	6464                	.insn	2, 0x6464
 10a:	6e65                	.insn	2, 0x6e65
 10c:	5f00                	.insn	2, 0x5f00
 10e:	765f 0068 5f5f      	.insn	6, 0x5f5f0068765f
 114:	6c76                	.insn	2, 0x6c76
 116:	6c00                	.insn	2, 0x6c00
 118:	20676e6f          	jal	t3,7631e <_jump-0x7ff8bce2>
 11c:	6f6c                	.insn	2, 0x6f6c
 11e:	676e                	.insn	2, 0x676e
 120:	6920                	.insn	2, 0x6920
 122:	746e                	.insn	2, 0x746e
 124:	6c00                	.insn	2, 0x6c00
 126:	20676e6f          	jal	t3,7632c <_jump-0x7ff8bcd4>
 12a:	6f6c                	.insn	2, 0x6f6c
 12c:	676e                	.insn	2, 0x676e
 12e:	7520                	.insn	2, 0x7520
 130:	736e                	.insn	2, 0x736e
 132:	6769                	.insn	2, 0x6769
 134:	656e                	.insn	2, 0x656e
 136:	2064                	.insn	2, 0x2064
 138:	6e69                	.insn	2, 0x6e69
 13a:	0074                	.insn	2, 0x0074
 13c:	6968                	.insn	2, 0x6968
 13e:	5f006867          	.insn	4, 0x5f006867
 142:	635f 7a6c 745f      	.insn	6, 0x745f7a6c635f
 148:	6261                	.insn	2, 0x6261
 14a:	6300                	.insn	2, 0x6300
 14c:	6c706d6f          	jal	s10,7012 <_jump-0x7fffafee>
 150:	7865                	.insn	2, 0x7865
 152:	5f20                	.insn	2, 0x5f20
 154:	6c46                	.insn	2, 0x6c46
 156:	3174616f          	jal	sp,46c6c <_jump-0x7ffbb394>
 15a:	0036                	.insn	2, 0x0036
 15c:	6e75                	.insn	2, 0x6e75
 15e:	6e676973          	csrrsi	s2,0x6e6,14
 162:	6465                	.insn	2, 0x6465
 164:	6320                	.insn	2, 0x6320
 166:	6168                	.insn	2, 0x6168
 168:	0072                	.insn	2, 0x0072
 16a:	5f5f 3078 5f00      	.insn	6, 0x5f0030785f5f
 170:	785f 0031 5f5f      	.insn	6, 0x5f5f0031785f
 176:	3278                	.insn	2, 0x3278
 178:	5f00                	.insn	2, 0x5f00
 17a:	785f 0033 5155      	.insn	6, 0x51550033785f
 180:	7449                	.insn	2, 0x7449
 182:	7079                	.insn	2, 0x7079
 184:	0065                	.insn	2, 0x0065
 186:	726f6873          	csrrsi	a6,mhpmevent6h,30
 18a:	2074                	.insn	2, 0x2074
 18c:	6e75                	.insn	2, 0x6e75
 18e:	6e676973          	csrrsi	s2,0x6e6,14
 192:	6465                	.insn	2, 0x6465
 194:	6920                	.insn	2, 0x6920
 196:	746e                	.insn	2, 0x746e
 198:	5500                	.insn	2, 0x5500
 19a:	4944                	.insn	2, 0x4944
 19c:	7974                	.insn	2, 0x7974
 19e:	6570                	.insn	2, 0x6570
 1a0:	5500                	.insn	2, 0x5500
 1a2:	79744953          	.insn	4, 0x79744953
 1a6:	6570                	.insn	2, 0x6570
 1a8:	5f00                	.insn	2, 0x5f00
 1aa:	715f 0030 5f5f      	.insn	6, 0x5f5f0030715f
 1b0:	3171                	.insn	2, 0x3171
 1b2:	5f00                	.insn	2, 0x5f00
 1b4:	6f42                	.insn	2, 0x6f42
 1b6:	63006c6f          	jal	s8,67e6 <_jump-0x7fffb81a>
 1ba:	6c706d6f          	jal	s10,7080 <_jump-0x7fffaf80>
 1be:	7865                	.insn	2, 0x7865
 1c0:	6420                	.insn	2, 0x6420
 1c2:	6c62756f          	jal	a0,27888 <_jump-0x7ffda778>
 1c6:	0065                	.insn	2, 0x0065
 1c8:	5f5f 7278 5f00      	.insn	6, 0x5f0072785f5f
 1ce:	755f 6964 6d76      	.insn	6, 0x6d766964755f
 1d4:	6964646f          	jal	s0,4686a <_jump-0x7ffbb796>
 1d8:	0034                	.insn	2, 0x0034
 1da:	706d6f63          	bltu	s10,t1,8f8 <_jump-0x80001708>
 1de:	656c                	.insn	2, 0x656c
 1e0:	2078                	.insn	2, 0x2078
 1e2:	6f6c                	.insn	2, 0x6f6c
 1e4:	676e                	.insn	2, 0x676e
 1e6:	6420                	.insn	2, 0x6420
 1e8:	6c62756f          	jal	a0,278ae <_jump-0x7ffda752>
 1ec:	0065                	.insn	2, 0x0065
 1ee:	5f5f 3072 5f00      	.insn	6, 0x5f0030725f5f
 1f4:	725f 0031 5f5f      	.insn	6, 0x5f5f0031725f
 1fa:	6875                	.insn	2, 0x6875
 1fc:	5f00                	.insn	2, 0x5f00
 1fe:	755f 006c 4e47      	.insn	6, 0x4e47006c755f
 204:	2055                	.insn	2, 0x2055
 206:	20333243          	.insn	4, 0x20333243
 20a:	3531                	.insn	2, 0x3531
 20c:	322e                	.insn	2, 0x322e
 20e:	302e                	.insn	2, 0x302e
 210:	2d20                	.insn	2, 0x2d20
 212:	636d                	.insn	2, 0x636d
 214:	6f6d                	.insn	2, 0x6f6d
 216:	6564                	.insn	2, 0x6564
 218:	3d6c                	.insn	2, 0x3d6c
 21a:	656d                	.insn	2, 0x656d
 21c:	6c64                	.insn	2, 0x6c64
 21e:	2d20776f          	jal	a4,74f0 <_jump-0x7fffab10>
 222:	636d                	.insn	2, 0x636d
 224:	6f6d                	.insn	2, 0x6f6d
 226:	6564                	.insn	2, 0x6564
 228:	3d6c                	.insn	2, 0x3d6c
 22a:	656d                	.insn	2, 0x656d
 22c:	6c64                	.insn	2, 0x6c64
 22e:	2d20776f          	jal	a4,7500 <_jump-0x7fffab00>
 232:	616d                	.insn	2, 0x616d
 234:	6962                	.insn	2, 0x6962
 236:	693d                	.insn	2, 0x693d
 238:	706c                	.insn	2, 0x706c
 23a:	2d203233          	.insn	4, 0x2d203233
 23e:	696d                	.insn	2, 0x696d
 240:	732d6173          	csrrsi	sp,mhpmevent18h,26
 244:	6570                	.insn	2, 0x6570
 246:	30323d63          	.insn	4, 0x30323d63
 24a:	3931                	.insn	2, 0x3931
 24c:	3231                	.insn	2, 0x3231
 24e:	3331                	.insn	2, 0x3331
 250:	2d20                	.insn	2, 0x2d20
 252:	616d                	.insn	2, 0x616d
 254:	6372                	.insn	2, 0x6372
 256:	3d68                	.insn	2, 0x3d68
 258:	7672                	.insn	2, 0x7672
 25a:	6d693233          	.insn	4, 0x6d693233
 25e:	7a5f 6369 7273      	.insn	6, 0x727363697a5f
 264:	7a5f 6d6d 6c75      	.insn	6, 0x6c756d6d7a5f
 26a:	2d20                	.insn	2, 0x2d20
 26c:	4f2d2067          	.insn	4, 0x4f2d2067
 270:	4f2d2073          	csrs	0x4f2,s10
 274:	2032                	.insn	2, 0x2032
 276:	4f2d                	.insn	2, 0x4f2d
 278:	662d2073          	csrs	0x662,s10
 27c:	7562                	.insn	2, 0x7562
 27e:	6c69                	.insn	2, 0x6c69
 280:	6964                	.insn	2, 0x6964
 282:	676e                	.insn	2, 0x676e
 284:	6c2d                	.insn	2, 0x6c2d
 286:	6269                	.insn	2, 0x6269
 288:	20636367          	.insn	4, 0x20636367
 28c:	662d                	.insn	2, 0x662d
 28e:	6f6e                	.insn	2, 0x6f6e
 290:	732d                	.insn	2, 0x732d
 292:	6174                	.insn	2, 0x6174
 294:	702d6b63          	bltu	s10,sp,9aa <_jump-0x80001656>
 298:	6f72                	.insn	2, 0x6f72
 29a:	6574                	.insn	2, 0x6574
 29c:	726f7463          	bgeu	t5,t1,9c4 <_jump-0x8000163c>
 2a0:	2d20                	.insn	2, 0x2d20
 2a2:	7666                	.insn	2, 0x7666
 2a4:	7369                	.insn	2, 0x7369
 2a6:	6269                	.insn	2, 0x6269
 2a8:	6c69                	.insn	2, 0x6c69
 2aa:	7469                	.insn	2, 0x7469
 2ac:	3d79                	.insn	2, 0x3d79
 2ae:	6968                	.insn	2, 0x6968
 2b0:	6464                	.insn	2, 0x6464
 2b2:	6e65                	.insn	2, 0x6e65
	...

Disassembly of section .debug_line_str:

00000000 <.debug_line_str>:
   0:	2e2e                	.insn	2, 0x2e2e
   2:	2f2e2e2f          	.insn	4, 0x2f2e2e2f
   6:	2e2e                	.insn	2, 0x2e2e
   8:	2f2e2e2f          	.insn	4, 0x2f2e2e2f
   c:	2f636367          	.insn	4, 0x2f636367
  10:	696c                	.insn	2, 0x696c
  12:	6762                	.insn	2, 0x6762
  14:	6c2f6363          	bltu	t5,sp,6da <_jump-0x80001926>
  18:	6269                	.insn	2, 0x6269
  1a:	32636367          	.insn	4, 0x32636367
  1e:	632e                	.insn	2, 0x632e
  20:	6c00                	.insn	2, 0x6c00
  22:	6269                	.insn	2, 0x6269
  24:	32636367          	.insn	4, 0x32636367
  28:	682e                	.insn	2, 0x682e
  2a:	2e00                	.insn	2, 0x2e00
  2c:	2f2e                	.insn	2, 0x2f2e
  2e:	2e2e                	.insn	2, 0x2e2e
  30:	2f2e2e2f          	.insn	4, 0x2f2e2e2f
  34:	2e2e                	.insn	2, 0x2e2e
  36:	6363672f          	.insn	4, 0x6363672f
  3a:	62696c2f          	.insn	4, 0x62696c2f
  3e:	00636367          	.insn	4, 0x00636367
  42:	6d6f682f          	.insn	4, 0x6d6f682f
  46:	2f65                	.insn	2, 0x2f65
  48:	7474656b          	.insn	4, 0x7474656b
  4c:	6465                	.insn	2, 0x6465
  4e:	7369722f          	.insn	4, 0x7369722f
  52:	672d7663          	bgeu	s10,s2,6be <_jump-0x80001942>
  56:	756e                	.insn	2, 0x756e
  58:	742d                	.insn	2, 0x742d
  5a:	636c6f6f          	jal	t5,c6690 <_jump-0x7ff3b970>
  5e:	6168                	.insn	2, 0x6168
  60:	6e69                	.insn	2, 0x6e69
  62:	6975622f          	.insn	4, 0x6975622f
  66:	646c                	.insn	2, 0x646c
  68:	6975622f          	.insn	4, 0x6975622f
  6c:	646c                	.insn	2, 0x646c
  6e:	672d                	.insn	2, 0x672d
  70:	6e2d6363          	bltu	s10,sp,756 <_jump-0x800018aa>
  74:	7765                	.insn	2, 0x7765
  76:	696c                	.insn	2, 0x696c
  78:	2d62                	.insn	2, 0x2d62
  7a:	67617473          	csrrci	s0,0x676,2
  7e:	3265                	.insn	2, 0x3265
  80:	7369722f          	.insn	4, 0x7369722f
  84:	32337663          	bgeu	t1,gp,3b0 <_jump-0x80001c50>
  88:	752d                	.insn	2, 0x752d
  8a:	6b6e                	.insn	2, 0x6b6e
  8c:	6f6e                	.insn	2, 0x6f6e
  8e:	652d6e77          	.insn	4, 0x652d6e77
  92:	666c                	.insn	2, 0x666c
  94:	62696c2f          	.insn	4, 0x62696c2f
  98:	00636367          	.insn	4, 0x00636367
