
riscv.elf:     file format elf32-littleriscv


Disassembly of section .init:

80000000 <_start>:
80000000:	00010297          	auipc	t0,0x10
80000004:	00028293          	mv	t0,t0
80000008:	c0028113          	addi	sp,t0,-1024 # 8000fc00 <__intr_stack_top+0xebe8>
8000000c:	00001297          	auipc	t0,0x1
80000010:	00c28293          	addi	t0,t0,12 # 80001018 <__intr_stack_top>
80000014:	34029073          	csrw	mscratch,t0
80000018:	00001517          	auipc	a0,0x1
8000001c:	c0050513          	addi	a0,a0,-1024 # 80000c18 <__bss_end>
80000020:	00001597          	auipc	a1,0x1
80000024:	bf858593          	addi	a1,a1,-1032 # 80000c18 <__bss_end>
80000028:	00b57863          	bgeu	a0,a1,80000038 <_bss_init_end>

8000002c <_bss_init_begin>:
8000002c:	00052023          	sw	zero,0(a0)
80000030:	00450513          	addi	a0,a0,4
80000034:	feb56ce3          	bltu	a0,a1,8000002c <_bss_init_begin>

80000038 <_bss_init_end>:
80000038:	00001517          	auipc	a0,0x1
8000003c:	b9c50513          	addi	a0,a0,-1124 # 80000bd4 <__data_lma>
80000040:	00001597          	auipc	a1,0x1
80000044:	b9458593          	addi	a1,a1,-1132 # 80000bd4 <__data_lma>
80000048:	02b50263          	beq	a0,a1,8000006c <_data_init_end>
8000004c:	00001617          	auipc	a2,0x1
80000050:	bcc60613          	addi	a2,a2,-1076 # 80000c18 <__bss_end>
80000054:	00c5fc63          	bgeu	a1,a2,8000006c <_data_init_end>

80000058 <_data_init_begin>:
80000058:	00052283          	lw	t0,0(a0)
8000005c:	0055a023          	sw	t0,0(a1)
80000060:	00450513          	addi	a0,a0,4
80000064:	00458593          	addi	a1,a1,4
80000068:	fec5e8e3          	bltu	a1,a2,80000058 <_data_init_begin>

8000006c <_data_init_end>:
8000006c:	00000097          	auipc	ra,0x0
80000070:	014080e7          	jalr	20(ra) # 80000080 <init>
80000074:	00000097          	auipc	ra,0x0
80000078:	010080e7          	jalr	16(ra) # 80000084 <entry>

8000007c <loop>:
8000007c:	0000006f          	j	8000007c <loop>

80000080 <init>:
80000080:	00008067          	ret

80000084 <entry>:
80000084:	00001097          	auipc	ra,0x1
80000088:	9b4080e7          	jalr	-1612(ra) # 80000a38 <main>
8000008c:	00100073          	ebreak
80000090:	00008067          	ret

Disassembly of section .text:

80000094 <__fsymtab_end>:
80000094:	30047573          	csrrci	a0,mstatus,8
80000098:	00008067          	ret

8000009c <interrupt_enable>:
8000009c:	30051073          	csrw	mstatus,a0
800000a0:	00008067          	ret

800000a4 <trap_entry>:
800000a4:	34011173          	csrrw	sp,mscratch,sp
800000a8:	0040006f          	j	800000ac <_save>

800000ac <_save>:
800000ac:	f8010113          	addi	sp,sp,-128
800000b0:	00112223          	sw	ra,4(sp)
800000b4:	341020f3          	csrr	ra,mepc
800000b8:	00112023          	sw	ra,0(sp)
800000bc:	08800093          	li	ra,136
800000c0:	00112423          	sw	ra,8(sp)
800000c4:	00412823          	sw	tp,16(sp)
800000c8:	00512a23          	sw	t0,20(sp)
800000cc:	00612c23          	sw	t1,24(sp)
800000d0:	00712e23          	sw	t2,28(sp)
800000d4:	02812023          	sw	s0,32(sp)
800000d8:	02912223          	sw	s1,36(sp)
800000dc:	02a12423          	sw	a0,40(sp)
800000e0:	02b12623          	sw	a1,44(sp)
800000e4:	02c12823          	sw	a2,48(sp)
800000e8:	02d12a23          	sw	a3,52(sp)
800000ec:	02e12c23          	sw	a4,56(sp)
800000f0:	02f12e23          	sw	a5,60(sp)
800000f4:	05012023          	sw	a6,64(sp)
800000f8:	05112223          	sw	a7,68(sp)
800000fc:	05212423          	sw	s2,72(sp)
80000100:	05312623          	sw	s3,76(sp)
80000104:	05412823          	sw	s4,80(sp)
80000108:	05512a23          	sw	s5,84(sp)
8000010c:	05612c23          	sw	s6,88(sp)
80000110:	05712e23          	sw	s7,92(sp)
80000114:	07812023          	sw	s8,96(sp)
80000118:	07912223          	sw	s9,100(sp)
8000011c:	07a12423          	sw	s10,104(sp)
80000120:	07b12623          	sw	s11,108(sp)
80000124:	07c12823          	sw	t3,112(sp)
80000128:	07d12a23          	sw	t4,116(sp)
8000012c:	07e12c23          	sw	t5,120(sp)
80000130:	07f12e23          	sw	t6,124(sp)
80000134:	34202573          	csrr	a0,mcause
80000138:	341025f3          	csrr	a1,mepc
8000013c:	01f55293          	srli	t0,a0,0x1f
80000140:	00028863          	beqz	t0,80000150 <_is_exception>

80000144 <_back_process>:
80000144:	00000097          	auipc	ra,0x0
80000148:	16c080e7          	jalr	364(ra) # 800002b0 <trap_handler>
8000014c:	01c0006f          	j	80000168 <_is_interrupt>

80000150 <_is_exception>:
80000150:	00058313          	mv	t1,a1
80000154:	00458593          	addi	a1,a1,4
80000158:	34159073          	csrw	mepc,a1
8000015c:	00b12023          	sw	a1,0(sp)
80000160:	00030593          	mv	a1,t1
80000164:	fe1ff06f          	j	80000144 <_back_process>

80000168 <_is_interrupt>:
80000168:	00012083          	lw	ra,0(sp)
8000016c:	34109073          	csrw	mepc,ra
80000170:	00412083          	lw	ra,4(sp)
80000174:	000022b7          	lui	t0,0x2
80000178:	80028293          	addi	t0,t0,-2048 # 1800 <_start-0x7fffe800>
8000017c:	30029073          	csrw	mstatus,t0
80000180:	00812283          	lw	t0,8(sp)
80000184:	0802f293          	andi	t0,t0,128
80000188:	3002a073          	csrs	mstatus,t0
8000018c:	01012203          	lw	tp,16(sp)
80000190:	01412283          	lw	t0,20(sp)
80000194:	01812303          	lw	t1,24(sp)
80000198:	01c12383          	lw	t2,28(sp)
8000019c:	02012403          	lw	s0,32(sp)
800001a0:	02412483          	lw	s1,36(sp)
800001a4:	02812503          	lw	a0,40(sp)
800001a8:	02c12583          	lw	a1,44(sp)
800001ac:	03012603          	lw	a2,48(sp)
800001b0:	03412683          	lw	a3,52(sp)
800001b4:	03812703          	lw	a4,56(sp)
800001b8:	03c12783          	lw	a5,60(sp)
800001bc:	04012803          	lw	a6,64(sp)
800001c0:	04412883          	lw	a7,68(sp)
800001c4:	04812903          	lw	s2,72(sp)
800001c8:	04c12983          	lw	s3,76(sp)
800001cc:	05012a03          	lw	s4,80(sp)
800001d0:	05412a83          	lw	s5,84(sp)
800001d4:	05812b03          	lw	s6,88(sp)
800001d8:	05c12b83          	lw	s7,92(sp)
800001dc:	06012c03          	lw	s8,96(sp)
800001e0:	06412c83          	lw	s9,100(sp)
800001e4:	06812d03          	lw	s10,104(sp)
800001e8:	06c12d83          	lw	s11,108(sp)
800001ec:	07012e03          	lw	t3,112(sp)
800001f0:	07412e83          	lw	t4,116(sp)
800001f4:	07812f03          	lw	t5,120(sp)
800001f8:	07c12f83          	lw	t6,124(sp)
800001fc:	08010113          	addi	sp,sp,128
80000200:	34011173          	csrrw	sp,mscratch,sp
80000204:	30200073          	mret

80000208 <_restore_switched>:
80000208:	00012083          	lw	ra,0(sp)
8000020c:	34109073          	csrw	mepc,ra
80000210:	00412083          	lw	ra,4(sp)
80000214:	000022b7          	lui	t0,0x2
80000218:	80028293          	addi	t0,t0,-2048 # 1800 <_start-0x7fffe800>
8000021c:	30029073          	csrw	mstatus,t0
80000220:	00812283          	lw	t0,8(sp)
80000224:	0802f293          	andi	t0,t0,128
80000228:	3002a073          	csrs	mstatus,t0
8000022c:	01012203          	lw	tp,16(sp)
80000230:	01412283          	lw	t0,20(sp)
80000234:	01812303          	lw	t1,24(sp)
80000238:	01c12383          	lw	t2,28(sp)
8000023c:	02012403          	lw	s0,32(sp)
80000240:	02412483          	lw	s1,36(sp)
80000244:	02812503          	lw	a0,40(sp)
80000248:	02c12583          	lw	a1,44(sp)
8000024c:	03012603          	lw	a2,48(sp)
80000250:	03412683          	lw	a3,52(sp)
80000254:	03812703          	lw	a4,56(sp)
80000258:	03c12783          	lw	a5,60(sp)
8000025c:	04012803          	lw	a6,64(sp)
80000260:	04412883          	lw	a7,68(sp)
80000264:	04812903          	lw	s2,72(sp)
80000268:	04c12983          	lw	s3,76(sp)
8000026c:	05012a03          	lw	s4,80(sp)
80000270:	05412a83          	lw	s5,84(sp)
80000274:	05812b03          	lw	s6,88(sp)
80000278:	05c12b83          	lw	s7,92(sp)
8000027c:	06012c03          	lw	s8,96(sp)
80000280:	06412c83          	lw	s9,100(sp)
80000284:	06812d03          	lw	s10,104(sp)
80000288:	06c12d83          	lw	s11,108(sp)
8000028c:	07012e03          	lw	t3,112(sp)
80000290:	07412e83          	lw	t4,116(sp)
80000294:	07812f03          	lw	t5,120(sp)
80000298:	07c12f83          	lw	t6,124(sp)
8000029c:	08010113          	addi	sp,sp,128
800002a0:	30200073          	mret

800002a4 <_nop_list>:
800002a4:	00000013          	nop
800002a8:	00000013          	nop
800002ac:	00000013          	nop

800002b0 <trap_handler>:
800002b0:	00008067          	ret

800002b4 <uart_send_wait>:
800002b4:	fe010113          	addi	sp,sp,-32
800002b8:	00112e23          	sw	ra,28(sp)
800002bc:	00812c23          	sw	s0,24(sp)
800002c0:	02010413          	addi	s0,sp,32
800002c4:	fea42623          	sw	a0,-20(s0)
800002c8:	00058793          	mv	a5,a1
800002cc:	fef405a3          	sb	a5,-21(s0)
800002d0:	feb44703          	lbu	a4,-21(s0)
800002d4:	fec42783          	lw	a5,-20(s0)
800002d8:	00e7a823          	sw	a4,16(a5)
800002dc:	00000013          	nop
800002e0:	fec42783          	lw	a5,-20(s0)
800002e4:	0047a783          	lw	a5,4(a5)
800002e8:	0017f793          	andi	a5,a5,1
800002ec:	fe078ae3          	beqz	a5,800002e0 <uart_send_wait+0x2c>
800002f0:	fec42783          	lw	a5,-20(s0)
800002f4:	00100713          	li	a4,1
800002f8:	00e7a223          	sw	a4,4(a5)
800002fc:	00000013          	nop
80000300:	01c12083          	lw	ra,28(sp)
80000304:	01812403          	lw	s0,24(sp)
80000308:	02010113          	addi	sp,sp,32
8000030c:	00008067          	ret

80000310 <uart_read_wait>:
80000310:	fd010113          	addi	sp,sp,-48
80000314:	02112623          	sw	ra,44(sp)
80000318:	02812423          	sw	s0,40(sp)
8000031c:	03010413          	addi	s0,sp,48
80000320:	fca42e23          	sw	a0,-36(s0)
80000324:	00000013          	nop
80000328:	fdc42783          	lw	a5,-36(s0)
8000032c:	0047a783          	lw	a5,4(a5)
80000330:	0027f793          	andi	a5,a5,2
80000334:	fe078ae3          	beqz	a5,80000328 <uart_read_wait+0x18>
80000338:	fdc42783          	lw	a5,-36(s0)
8000033c:	00c7a783          	lw	a5,12(a5)
80000340:	fef407a3          	sb	a5,-17(s0)
80000344:	fdc42783          	lw	a5,-36(s0)
80000348:	00200713          	li	a4,2
8000034c:	00e7a223          	sw	a4,4(a5)
80000350:	fef44783          	lbu	a5,-17(s0)
80000354:	00078513          	mv	a0,a5
80000358:	02c12083          	lw	ra,44(sp)
8000035c:	02812403          	lw	s0,40(sp)
80000360:	03010113          	addi	sp,sp,48
80000364:	00008067          	ret

80000368 <xputc>:
80000368:	fe010113          	addi	sp,sp,-32
8000036c:	00112e23          	sw	ra,28(sp)
80000370:	00812c23          	sw	s0,24(sp)
80000374:	02010413          	addi	s0,sp,32
80000378:	00050793          	mv	a5,a0
8000037c:	fef407a3          	sb	a5,-17(s0)
80000380:	fef44703          	lbu	a4,-17(s0)
80000384:	00a00793          	li	a5,10
80000388:	00f71a63          	bne	a4,a5,8000039c <xputc+0x34>
8000038c:	00d00593          	li	a1,13
80000390:	80020537          	lui	a0,0x80020
80000394:	00000097          	auipc	ra,0x0
80000398:	f20080e7          	jalr	-224(ra) # 800002b4 <uart_send_wait>
8000039c:	fef44783          	lbu	a5,-17(s0)
800003a0:	00078593          	mv	a1,a5
800003a4:	80020537          	lui	a0,0x80020
800003a8:	00000097          	auipc	ra,0x0
800003ac:	f0c080e7          	jalr	-244(ra) # 800002b4 <uart_send_wait>
800003b0:	00000013          	nop
800003b4:	01c12083          	lw	ra,28(sp)
800003b8:	01812403          	lw	s0,24(sp)
800003bc:	02010113          	addi	sp,sp,32
800003c0:	00008067          	ret

800003c4 <xputs>:
800003c4:	fe010113          	addi	sp,sp,-32
800003c8:	00112e23          	sw	ra,28(sp)
800003cc:	00812c23          	sw	s0,24(sp)
800003d0:	02010413          	addi	s0,sp,32
800003d4:	fea42623          	sw	a0,-20(s0)
800003d8:	0200006f          	j	800003f8 <xputs+0x34>
800003dc:	fec42783          	lw	a5,-20(s0)
800003e0:	00178713          	addi	a4,a5,1
800003e4:	fee42623          	sw	a4,-20(s0)
800003e8:	0007c783          	lbu	a5,0(a5)
800003ec:	00078513          	mv	a0,a5
800003f0:	00000097          	auipc	ra,0x0
800003f4:	f78080e7          	jalr	-136(ra) # 80000368 <xputc>
800003f8:	fec42783          	lw	a5,-20(s0)
800003fc:	0007c783          	lbu	a5,0(a5)
80000400:	fc079ee3          	bnez	a5,800003dc <xputs+0x18>
80000404:	00000013          	nop
80000408:	00000013          	nop
8000040c:	01c12083          	lw	ra,28(sp)
80000410:	01812403          	lw	s0,24(sp)
80000414:	02010113          	addi	sp,sp,32
80000418:	00008067          	ret

8000041c <xvprintf>:
8000041c:	fb010113          	addi	sp,sp,-80
80000420:	04112623          	sw	ra,76(sp)
80000424:	04812423          	sw	s0,72(sp)
80000428:	05010413          	addi	s0,sp,80
8000042c:	faa42e23          	sw	a0,-68(s0)
80000430:	fab42c23          	sw	a1,-72(s0)
80000434:	fbc42783          	lw	a5,-68(s0)
80000438:	00178713          	addi	a4,a5,1
8000043c:	fae42e23          	sw	a4,-68(s0)
80000440:	0007c783          	lbu	a5,0(a5)
80000444:	fcf40ba3          	sb	a5,-41(s0)
80000448:	fd744783          	lbu	a5,-41(s0)
8000044c:	54078463          	beqz	a5,80000994 <xvprintf+0x578>
80000450:	fd744703          	lbu	a4,-41(s0)
80000454:	02500793          	li	a5,37
80000458:	00f70c63          	beq	a4,a5,80000470 <xvprintf+0x54>
8000045c:	fd744783          	lbu	a5,-41(s0)
80000460:	00078513          	mv	a0,a5
80000464:	00000097          	auipc	ra,0x0
80000468:	f04080e7          	jalr	-252(ra) # 80000368 <xputc>
8000046c:	5240006f          	j	80000990 <xvprintf+0x574>
80000470:	fc042e23          	sw	zero,-36(s0)
80000474:	fbc42783          	lw	a5,-68(s0)
80000478:	00178713          	addi	a4,a5,1
8000047c:	fae42e23          	sw	a4,-68(s0)
80000480:	0007c783          	lbu	a5,0(a5)
80000484:	fcf40ba3          	sb	a5,-41(s0)
80000488:	fd744703          	lbu	a4,-41(s0)
8000048c:	03000793          	li	a5,48
80000490:	02f71263          	bne	a4,a5,800004b4 <xvprintf+0x98>
80000494:	00100793          	li	a5,1
80000498:	fcf42e23          	sw	a5,-36(s0)
8000049c:	fbc42783          	lw	a5,-68(s0)
800004a0:	00178713          	addi	a4,a5,1
800004a4:	fae42e23          	sw	a4,-68(s0)
800004a8:	0007c783          	lbu	a5,0(a5)
800004ac:	fcf40ba3          	sb	a5,-41(s0)
800004b0:	02c0006f          	j	800004dc <xvprintf+0xc0>
800004b4:	fd744703          	lbu	a4,-41(s0)
800004b8:	02d00793          	li	a5,45
800004bc:	02f71063          	bne	a4,a5,800004dc <xvprintf+0xc0>
800004c0:	00200793          	li	a5,2
800004c4:	fcf42e23          	sw	a5,-36(s0)
800004c8:	fbc42783          	lw	a5,-68(s0)
800004cc:	00178713          	addi	a4,a5,1
800004d0:	fae42e23          	sw	a4,-68(s0)
800004d4:	0007c783          	lbu	a5,0(a5)
800004d8:	fcf40ba3          	sb	a5,-41(s0)
800004dc:	fe042023          	sw	zero,-32(s0)
800004e0:	0400006f          	j	80000520 <xvprintf+0x104>
800004e4:	fe042703          	lw	a4,-32(s0)
800004e8:	00070793          	mv	a5,a4
800004ec:	00279793          	slli	a5,a5,0x2
800004f0:	00e787b3          	add	a5,a5,a4
800004f4:	00179793          	slli	a5,a5,0x1
800004f8:	00078713          	mv	a4,a5
800004fc:	fd744783          	lbu	a5,-41(s0)
80000500:	00f707b3          	add	a5,a4,a5
80000504:	fd078793          	addi	a5,a5,-48
80000508:	fef42023          	sw	a5,-32(s0)
8000050c:	fbc42783          	lw	a5,-68(s0)
80000510:	00178713          	addi	a4,a5,1
80000514:	fae42e23          	sw	a4,-68(s0)
80000518:	0007c783          	lbu	a5,0(a5)
8000051c:	fcf40ba3          	sb	a5,-41(s0)
80000520:	fd744703          	lbu	a4,-41(s0)
80000524:	02f00793          	li	a5,47
80000528:	00e7f863          	bgeu	a5,a4,80000538 <xvprintf+0x11c>
8000052c:	fd744703          	lbu	a4,-41(s0)
80000530:	03900793          	li	a5,57
80000534:	fae7f8e3          	bgeu	a5,a4,800004e4 <xvprintf+0xc8>
80000538:	fd744703          	lbu	a4,-41(s0)
8000053c:	06c00793          	li	a5,108
80000540:	00f70863          	beq	a4,a5,80000550 <xvprintf+0x134>
80000544:	fd744703          	lbu	a4,-41(s0)
80000548:	04c00793          	li	a5,76
8000054c:	02f71263          	bne	a4,a5,80000570 <xvprintf+0x154>
80000550:	fdc42783          	lw	a5,-36(s0)
80000554:	0047e793          	ori	a5,a5,4
80000558:	fcf42e23          	sw	a5,-36(s0)
8000055c:	fbc42783          	lw	a5,-68(s0)
80000560:	00178713          	addi	a4,a5,1
80000564:	fae42e23          	sw	a4,-68(s0)
80000568:	0007c783          	lbu	a5,0(a5)
8000056c:	fcf40ba3          	sb	a5,-41(s0)
80000570:	fd744783          	lbu	a5,-41(s0)
80000574:	42078463          	beqz	a5,8000099c <xvprintf+0x580>
80000578:	fd744783          	lbu	a5,-41(s0)
8000057c:	fcf40b23          	sb	a5,-42(s0)
80000580:	fd644703          	lbu	a4,-42(s0)
80000584:	06000793          	li	a5,96
80000588:	00e7f863          	bgeu	a5,a4,80000598 <xvprintf+0x17c>
8000058c:	fd644783          	lbu	a5,-42(s0)
80000590:	fe078793          	addi	a5,a5,-32
80000594:	fcf40b23          	sb	a5,-42(s0)
80000598:	fd644783          	lbu	a5,-42(s0)
8000059c:	05800713          	li	a4,88
800005a0:	14e78463          	beq	a5,a4,800006e8 <xvprintf+0x2cc>
800005a4:	05800713          	li	a4,88
800005a8:	14f74663          	blt	a4,a5,800006f4 <xvprintf+0x2d8>
800005ac:	05500713          	li	a4,85
800005b0:	12e78663          	beq	a5,a4,800006dc <xvprintf+0x2c0>
800005b4:	05500713          	li	a4,85
800005b8:	12f74e63          	blt	a4,a5,800006f4 <xvprintf+0x2d8>
800005bc:	05300713          	li	a4,83
800005c0:	04e78063          	beq	a5,a4,80000600 <xvprintf+0x1e4>
800005c4:	05300713          	li	a4,83
800005c8:	12f74663          	blt	a4,a5,800006f4 <xvprintf+0x2d8>
800005cc:	04f00713          	li	a4,79
800005d0:	10e78063          	beq	a5,a4,800006d0 <xvprintf+0x2b4>
800005d4:	04f00713          	li	a4,79
800005d8:	10f74e63          	blt	a4,a5,800006f4 <xvprintf+0x2d8>
800005dc:	04400713          	li	a4,68
800005e0:	0ee78e63          	beq	a5,a4,800006dc <xvprintf+0x2c0>
800005e4:	04400713          	li	a4,68
800005e8:	10f74663          	blt	a4,a5,800006f4 <xvprintf+0x2d8>
800005ec:	04200713          	li	a4,66
800005f0:	0ce78a63          	beq	a5,a4,800006c4 <xvprintf+0x2a8>
800005f4:	04300713          	li	a4,67
800005f8:	0ae78463          	beq	a5,a4,800006a0 <xvprintf+0x284>
800005fc:	0f80006f          	j	800006f4 <xvprintf+0x2d8>
80000600:	fb842783          	lw	a5,-72(s0)
80000604:	00478713          	addi	a4,a5,4
80000608:	fae42c23          	sw	a4,-72(s0)
8000060c:	0007a783          	lw	a5,0(a5)
80000610:	fcf42823          	sw	a5,-48(s0)
80000614:	fe042223          	sw	zero,-28(s0)
80000618:	0100006f          	j	80000628 <xvprintf+0x20c>
8000061c:	fe442783          	lw	a5,-28(s0)
80000620:	00178793          	addi	a5,a5,1
80000624:	fef42223          	sw	a5,-28(s0)
80000628:	fd042703          	lw	a4,-48(s0)
8000062c:	fe442783          	lw	a5,-28(s0)
80000630:	00f707b3          	add	a5,a4,a5
80000634:	0007c783          	lbu	a5,0(a5)
80000638:	fe0792e3          	bnez	a5,8000061c <xvprintf+0x200>
8000063c:	0100006f          	j	8000064c <xvprintf+0x230>
80000640:	02000513          	li	a0,32
80000644:	00000097          	auipc	ra,0x0
80000648:	d24080e7          	jalr	-732(ra) # 80000368 <xputc>
8000064c:	fdc42783          	lw	a5,-36(s0)
80000650:	0027f793          	andi	a5,a5,2
80000654:	00079c63          	bnez	a5,8000066c <xvprintf+0x250>
80000658:	fe442783          	lw	a5,-28(s0)
8000065c:	00178713          	addi	a4,a5,1
80000660:	fee42223          	sw	a4,-28(s0)
80000664:	fe042703          	lw	a4,-32(s0)
80000668:	fce7ece3          	bltu	a5,a4,80000640 <xvprintf+0x224>
8000066c:	fd042503          	lw	a0,-48(s0)
80000670:	00000097          	auipc	ra,0x0
80000674:	d54080e7          	jalr	-684(ra) # 800003c4 <xputs>
80000678:	0100006f          	j	80000688 <xvprintf+0x26c>
8000067c:	02000513          	li	a0,32
80000680:	00000097          	auipc	ra,0x0
80000684:	ce8080e7          	jalr	-792(ra) # 80000368 <xputc>
80000688:	fe442783          	lw	a5,-28(s0)
8000068c:	00178713          	addi	a4,a5,1
80000690:	fee42223          	sw	a4,-28(s0)
80000694:	fe042703          	lw	a4,-32(s0)
80000698:	fee7e2e3          	bltu	a5,a4,8000067c <xvprintf+0x260>
8000069c:	2f40006f          	j	80000990 <xvprintf+0x574>
800006a0:	fb842783          	lw	a5,-72(s0)
800006a4:	00478713          	addi	a4,a5,4
800006a8:	fae42c23          	sw	a4,-72(s0)
800006ac:	0007a783          	lw	a5,0(a5)
800006b0:	0ff7f793          	zext.b	a5,a5
800006b4:	00078513          	mv	a0,a5
800006b8:	00000097          	auipc	ra,0x0
800006bc:	cb0080e7          	jalr	-848(ra) # 80000368 <xputc>
800006c0:	2d00006f          	j	80000990 <xvprintf+0x574>
800006c4:	00200793          	li	a5,2
800006c8:	fef42623          	sw	a5,-20(s0)
800006cc:	03c0006f          	j	80000708 <xvprintf+0x2ec>
800006d0:	00800793          	li	a5,8
800006d4:	fef42623          	sw	a5,-20(s0)
800006d8:	0300006f          	j	80000708 <xvprintf+0x2ec>
800006dc:	00a00793          	li	a5,10
800006e0:	fef42623          	sw	a5,-20(s0)
800006e4:	0240006f          	j	80000708 <xvprintf+0x2ec>
800006e8:	01000793          	li	a5,16
800006ec:	fef42623          	sw	a5,-20(s0)
800006f0:	0180006f          	j	80000708 <xvprintf+0x2ec>
800006f4:	fd744783          	lbu	a5,-41(s0)
800006f8:	00078513          	mv	a0,a5
800006fc:	00000097          	auipc	ra,0x0
80000700:	c6c080e7          	jalr	-916(ra) # 80000368 <xputc>
80000704:	28c0006f          	j	80000990 <xvprintf+0x574>
80000708:	fdc42783          	lw	a5,-36(s0)
8000070c:	0047f793          	andi	a5,a5,4
80000710:	00078e63          	beqz	a5,8000072c <xvprintf+0x310>
80000714:	fb842783          	lw	a5,-72(s0)
80000718:	00478713          	addi	a4,a5,4
8000071c:	fae42c23          	sw	a4,-72(s0)
80000720:	0007a783          	lw	a5,0(a5)
80000724:	fcf42c23          	sw	a5,-40(s0)
80000728:	03c0006f          	j	80000764 <xvprintf+0x348>
8000072c:	fd644703          	lbu	a4,-42(s0)
80000730:	04400793          	li	a5,68
80000734:	00f71e63          	bne	a4,a5,80000750 <xvprintf+0x334>
80000738:	fb842783          	lw	a5,-72(s0)
8000073c:	00478713          	addi	a4,a5,4
80000740:	fae42c23          	sw	a4,-72(s0)
80000744:	0007a783          	lw	a5,0(a5)
80000748:	fcf42c23          	sw	a5,-40(s0)
8000074c:	0180006f          	j	80000764 <xvprintf+0x348>
80000750:	fb842783          	lw	a5,-72(s0)
80000754:	00478713          	addi	a4,a5,4
80000758:	fae42c23          	sw	a4,-72(s0)
8000075c:	0007a783          	lw	a5,0(a5)
80000760:	fcf42c23          	sw	a5,-40(s0)
80000764:	fd644703          	lbu	a4,-42(s0)
80000768:	04400793          	li	a5,68
8000076c:	02f71263          	bne	a4,a5,80000790 <xvprintf+0x374>
80000770:	fd842783          	lw	a5,-40(s0)
80000774:	0007de63          	bgez	a5,80000790 <xvprintf+0x374>
80000778:	fd842783          	lw	a5,-40(s0)
8000077c:	40f007b3          	neg	a5,a5
80000780:	fcf42c23          	sw	a5,-40(s0)
80000784:	fdc42783          	lw	a5,-36(s0)
80000788:	0087e793          	ori	a5,a5,8
8000078c:	fcf42e23          	sw	a5,-36(s0)
80000790:	fe042423          	sw	zero,-24(s0)
80000794:	fec42703          	lw	a4,-20(s0)
80000798:	00200793          	li	a5,2
8000079c:	02f71263          	bne	a4,a5,800007c0 <xvprintf+0x3a4>
800007a0:	fd842783          	lw	a5,-40(s0)
800007a4:	0ff7f793          	zext.b	a5,a5
800007a8:	0017f793          	andi	a5,a5,1
800007ac:	fcf40b23          	sb	a5,-42(s0)
800007b0:	fd842783          	lw	a5,-40(s0)
800007b4:	0017d793          	srli	a5,a5,0x1
800007b8:	fcf42c23          	sw	a5,-40(s0)
800007bc:	0940006f          	j	80000850 <xvprintf+0x434>
800007c0:	fec42703          	lw	a4,-20(s0)
800007c4:	00800793          	li	a5,8
800007c8:	02f71263          	bne	a4,a5,800007ec <xvprintf+0x3d0>
800007cc:	fd842783          	lw	a5,-40(s0)
800007d0:	0ff7f793          	zext.b	a5,a5
800007d4:	0077f793          	andi	a5,a5,7
800007d8:	fcf40b23          	sb	a5,-42(s0)
800007dc:	fd842783          	lw	a5,-40(s0)
800007e0:	0037d793          	srli	a5,a5,0x3
800007e4:	fcf42c23          	sw	a5,-40(s0)
800007e8:	0680006f          	j	80000850 <xvprintf+0x434>
800007ec:	fec42703          	lw	a4,-20(s0)
800007f0:	00a00793          	li	a5,10
800007f4:	02f71463          	bne	a4,a5,8000081c <xvprintf+0x400>
800007f8:	fd842703          	lw	a4,-40(s0)
800007fc:	fec42783          	lw	a5,-20(s0)
80000800:	02f777b3          	remu	a5,a4,a5
80000804:	fcf40b23          	sb	a5,-42(s0)
80000808:	fd842703          	lw	a4,-40(s0)
8000080c:	fec42783          	lw	a5,-20(s0)
80000810:	02f757b3          	divu	a5,a4,a5
80000814:	fcf42c23          	sw	a5,-40(s0)
80000818:	0380006f          	j	80000850 <xvprintf+0x434>
8000081c:	fec42703          	lw	a4,-20(s0)
80000820:	01000793          	li	a5,16
80000824:	02f71263          	bne	a4,a5,80000848 <xvprintf+0x42c>
80000828:	fd842783          	lw	a5,-40(s0)
8000082c:	0ff7f793          	zext.b	a5,a5
80000830:	00f7f793          	andi	a5,a5,15
80000834:	fcf40b23          	sb	a5,-42(s0)
80000838:	fd842783          	lw	a5,-40(s0)
8000083c:	0047d793          	srli	a5,a5,0x4
80000840:	fcf42c23          	sw	a5,-40(s0)
80000844:	00c0006f          	j	80000850 <xvprintf+0x434>
80000848:	fc040b23          	sb	zero,-42(s0)
8000084c:	fc042c23          	sw	zero,-40(s0)
80000850:	fd644703          	lbu	a4,-42(s0)
80000854:	00900793          	li	a5,9
80000858:	02e7f463          	bgeu	a5,a4,80000880 <xvprintf+0x464>
8000085c:	fd744703          	lbu	a4,-41(s0)
80000860:	07800793          	li	a5,120
80000864:	00f71663          	bne	a4,a5,80000870 <xvprintf+0x454>
80000868:	02700793          	li	a5,39
8000086c:	0080006f          	j	80000874 <xvprintf+0x458>
80000870:	00700793          	li	a5,7
80000874:	fd644703          	lbu	a4,-42(s0)
80000878:	00e787b3          	add	a5,a5,a4
8000087c:	fcf40b23          	sb	a5,-42(s0)
80000880:	fe842783          	lw	a5,-24(s0)
80000884:	00178713          	addi	a4,a5,1
80000888:	fee42423          	sw	a4,-24(s0)
8000088c:	fd644703          	lbu	a4,-42(s0)
80000890:	03070713          	addi	a4,a4,48
80000894:	0ff77713          	zext.b	a4,a4
80000898:	ff078793          	addi	a5,a5,-16
8000089c:	008787b3          	add	a5,a5,s0
800008a0:	fce78823          	sb	a4,-48(a5)
800008a4:	fd842783          	lw	a5,-40(s0)
800008a8:	00078863          	beqz	a5,800008b8 <xvprintf+0x49c>
800008ac:	fe842703          	lw	a4,-24(s0)
800008b0:	00f00793          	li	a5,15
800008b4:	eee7f0e3          	bgeu	a5,a4,80000794 <xvprintf+0x378>
800008b8:	fdc42783          	lw	a5,-36(s0)
800008bc:	0087f793          	andi	a5,a5,8
800008c0:	02078063          	beqz	a5,800008e0 <xvprintf+0x4c4>
800008c4:	fe842783          	lw	a5,-24(s0)
800008c8:	00178713          	addi	a4,a5,1
800008cc:	fee42423          	sw	a4,-24(s0)
800008d0:	ff078793          	addi	a5,a5,-16
800008d4:	008787b3          	add	a5,a5,s0
800008d8:	02d00713          	li	a4,45
800008dc:	fce78823          	sb	a4,-48(a5)
800008e0:	fe842783          	lw	a5,-24(s0)
800008e4:	fef42223          	sw	a5,-28(s0)
800008e8:	fdc42783          	lw	a5,-36(s0)
800008ec:	0017f793          	andi	a5,a5,1
800008f0:	00078863          	beqz	a5,80000900 <xvprintf+0x4e4>
800008f4:	03000793          	li	a5,48
800008f8:	fcf40b23          	sb	a5,-42(s0)
800008fc:	0200006f          	j	8000091c <xvprintf+0x500>
80000900:	02000793          	li	a5,32
80000904:	fcf40b23          	sb	a5,-42(s0)
80000908:	0140006f          	j	8000091c <xvprintf+0x500>
8000090c:	fd644783          	lbu	a5,-42(s0)
80000910:	00078513          	mv	a0,a5
80000914:	00000097          	auipc	ra,0x0
80000918:	a54080e7          	jalr	-1452(ra) # 80000368 <xputc>
8000091c:	fdc42783          	lw	a5,-36(s0)
80000920:	0027f793          	andi	a5,a5,2
80000924:	00079c63          	bnez	a5,8000093c <xvprintf+0x520>
80000928:	fe442783          	lw	a5,-28(s0)
8000092c:	00178713          	addi	a4,a5,1
80000930:	fee42223          	sw	a4,-28(s0)
80000934:	fe042703          	lw	a4,-32(s0)
80000938:	fce7eae3          	bltu	a5,a4,8000090c <xvprintf+0x4f0>
8000093c:	fe842783          	lw	a5,-24(s0)
80000940:	fff78793          	addi	a5,a5,-1
80000944:	fef42423          	sw	a5,-24(s0)
80000948:	fe842783          	lw	a5,-24(s0)
8000094c:	ff078793          	addi	a5,a5,-16
80000950:	008787b3          	add	a5,a5,s0
80000954:	fd07c783          	lbu	a5,-48(a5)
80000958:	00078513          	mv	a0,a5
8000095c:	00000097          	auipc	ra,0x0
80000960:	a0c080e7          	jalr	-1524(ra) # 80000368 <xputc>
80000964:	fe842783          	lw	a5,-24(s0)
80000968:	fc079ae3          	bnez	a5,8000093c <xvprintf+0x520>
8000096c:	0100006f          	j	8000097c <xvprintf+0x560>
80000970:	02000513          	li	a0,32
80000974:	00000097          	auipc	ra,0x0
80000978:	9f4080e7          	jalr	-1548(ra) # 80000368 <xputc>
8000097c:	fe442783          	lw	a5,-28(s0)
80000980:	00178713          	addi	a4,a5,1
80000984:	fee42223          	sw	a4,-28(s0)
80000988:	fe042703          	lw	a4,-32(s0)
8000098c:	fee7e2e3          	bltu	a5,a4,80000970 <xvprintf+0x554>
80000990:	aa5ff06f          	j	80000434 <xvprintf+0x18>
80000994:	00000013          	nop
80000998:	0080006f          	j	800009a0 <xvprintf+0x584>
8000099c:	00000013          	nop
800009a0:	00000013          	nop
800009a4:	04c12083          	lw	ra,76(sp)
800009a8:	04812403          	lw	s0,72(sp)
800009ac:	05010113          	addi	sp,sp,80
800009b0:	00008067          	ret

800009b4 <xprintf>:
800009b4:	fb010113          	addi	sp,sp,-80
800009b8:	02112623          	sw	ra,44(sp)
800009bc:	02812423          	sw	s0,40(sp)
800009c0:	03010413          	addi	s0,sp,48
800009c4:	fca42e23          	sw	a0,-36(s0)
800009c8:	00b42223          	sw	a1,4(s0)
800009cc:	00c42423          	sw	a2,8(s0)
800009d0:	00d42623          	sw	a3,12(s0)
800009d4:	00e42823          	sw	a4,16(s0)
800009d8:	00f42a23          	sw	a5,20(s0)
800009dc:	01042c23          	sw	a6,24(s0)
800009e0:	01142e23          	sw	a7,28(s0)
800009e4:	fffff097          	auipc	ra,0xfffff
800009e8:	6b0080e7          	jalr	1712(ra) # 80000094 <__fsymtab_end>
800009ec:	fea42623          	sw	a0,-20(s0)
800009f0:	02040793          	addi	a5,s0,32
800009f4:	fcf42c23          	sw	a5,-40(s0)
800009f8:	fd842783          	lw	a5,-40(s0)
800009fc:	fe478793          	addi	a5,a5,-28
80000a00:	fef42423          	sw	a5,-24(s0)
80000a04:	fe842783          	lw	a5,-24(s0)
80000a08:	00078593          	mv	a1,a5
80000a0c:	fdc42503          	lw	a0,-36(s0)
80000a10:	00000097          	auipc	ra,0x0
80000a14:	a0c080e7          	jalr	-1524(ra) # 8000041c <xvprintf>
80000a18:	fec42503          	lw	a0,-20(s0)
80000a1c:	fffff097          	auipc	ra,0xfffff
80000a20:	680080e7          	jalr	1664(ra) # 8000009c <interrupt_enable>
80000a24:	00000013          	nop
80000a28:	02c12083          	lw	ra,44(sp)
80000a2c:	02812403          	lw	s0,40(sp)
80000a30:	05010113          	addi	sp,sp,80
80000a34:	00008067          	ret

80000a38 <main>:
80000a38:	f9010113          	addi	sp,sp,-112
80000a3c:	06112623          	sw	ra,108(sp)
80000a40:	06812423          	sw	s0,104(sp)
80000a44:	07010413          	addi	s0,sp,112
80000a48:	800017b7          	lui	a5,0x80001
80000a4c:	bd478513          	addi	a0,a5,-1068 # 80000bd4 <__data_lma>
80000a50:	00000097          	auipc	ra,0x0
80000a54:	f64080e7          	jalr	-156(ra) # 800009b4 <xprintf>
80000a58:	fe042623          	sw	zero,-20(s0)
80000a5c:	fe042423          	sw	zero,-24(s0)
80000a60:	0340006f          	j	80000a94 <main+0x5c>
80000a64:	80020537          	lui	a0,0x80020
80000a68:	00000097          	auipc	ra,0x0
80000a6c:	8a8080e7          	jalr	-1880(ra) # 80000310 <uart_read_wait>
80000a70:	00050793          	mv	a5,a0
80000a74:	00078713          	mv	a4,a5
80000a78:	fe842783          	lw	a5,-24(s0)
80000a7c:	ff078793          	addi	a5,a5,-16
80000a80:	008787b3          	add	a5,a5,s0
80000a84:	fae78623          	sb	a4,-84(a5)
80000a88:	fe842783          	lw	a5,-24(s0)
80000a8c:	00178793          	addi	a5,a5,1
80000a90:	fef42423          	sw	a5,-24(s0)
80000a94:	fe842703          	lw	a4,-24(s0)
80000a98:	04100793          	li	a5,65
80000a9c:	fce7f4e3          	bgeu	a5,a4,80000a64 <main+0x2c>
80000aa0:	f9c44703          	lbu	a4,-100(s0)
80000aa4:	0a600793          	li	a5,166
80000aa8:	04f71663          	bne	a4,a5,80000af4 <main+0xbc>
80000aac:	800017b7          	lui	a5,0x80001
80000ab0:	be878513          	addi	a0,a5,-1048 # 80000be8 <__data_lma+0x14>
80000ab4:	00000097          	auipc	ra,0x0
80000ab8:	f00080e7          	jalr	-256(ra) # 800009b4 <xprintf>
80000abc:	800027b7          	lui	a5,0x80002
80000ac0:	fef42023          	sw	a5,-32(s0)
80000ac4:	fe042783          	lw	a5,-32(s0)
80000ac8:	0007a783          	lw	a5,0(a5) # 80002000 <__intr_stack_top+0xfe8>
80000acc:	00078613          	mv	a2,a5
80000ad0:	fe042583          	lw	a1,-32(s0)
80000ad4:	800017b7          	lui	a5,0x80001
80000ad8:	c0478513          	addi	a0,a5,-1020 # 80000c04 <__data_lma+0x30>
80000adc:	00000097          	auipc	ra,0x0
80000ae0:	ed8080e7          	jalr	-296(ra) # 800009b4 <xprintf>
80000ae4:	fe042783          	lw	a5,-32(s0)
80000ae8:	000780e7          	jalr	a5
80000aec:	00000793          	li	a5,0
80000af0:	0d00006f          	j	80000bc0 <main+0x188>
80000af4:	fe042223          	sw	zero,-28(s0)
80000af8:	0ac0006f          	j	80000ba4 <main+0x16c>
80000afc:	fe442783          	lw	a5,-28(s0)
80000b00:	00279793          	slli	a5,a5,0x2
80000b04:	00178793          	addi	a5,a5,1
80000b08:	ff078793          	addi	a5,a5,-16
80000b0c:	008787b3          	add	a5,a5,s0
80000b10:	fac7c783          	lbu	a5,-84(a5)
80000b14:	00078713          	mv	a4,a5
80000b18:	fe442783          	lw	a5,-28(s0)
80000b1c:	00279793          	slli	a5,a5,0x2
80000b20:	00278793          	addi	a5,a5,2
80000b24:	ff078793          	addi	a5,a5,-16
80000b28:	008787b3          	add	a5,a5,s0
80000b2c:	fac7c783          	lbu	a5,-84(a5)
80000b30:	00879793          	slli	a5,a5,0x8
80000b34:	00f70733          	add	a4,a4,a5
80000b38:	fe442783          	lw	a5,-28(s0)
80000b3c:	00279793          	slli	a5,a5,0x2
80000b40:	00378793          	addi	a5,a5,3
80000b44:	ff078793          	addi	a5,a5,-16
80000b48:	008787b3          	add	a5,a5,s0
80000b4c:	fac7c783          	lbu	a5,-84(a5)
80000b50:	01079793          	slli	a5,a5,0x10
80000b54:	00f70733          	add	a4,a4,a5
80000b58:	fe442783          	lw	a5,-28(s0)
80000b5c:	00178793          	addi	a5,a5,1
80000b60:	00279793          	slli	a5,a5,0x2
80000b64:	ff078793          	addi	a5,a5,-16
80000b68:	008787b3          	add	a5,a5,s0
80000b6c:	fac7c783          	lbu	a5,-84(a5)
80000b70:	01879793          	slli	a5,a5,0x18
80000b74:	00f706b3          	add	a3,a4,a5
80000b78:	fec42703          	lw	a4,-20(s0)
80000b7c:	fe442783          	lw	a5,-28(s0)
80000b80:	00f707b3          	add	a5,a4,a5
80000b84:	00279713          	slli	a4,a5,0x2
80000b88:	800027b7          	lui	a5,0x80002
80000b8c:	00f707b3          	add	a5,a4,a5
80000b90:	00068713          	mv	a4,a3
80000b94:	00e7a023          	sw	a4,0(a5) # 80002000 <__intr_stack_top+0xfe8>
80000b98:	fe442783          	lw	a5,-28(s0)
80000b9c:	00178793          	addi	a5,a5,1
80000ba0:	fef42223          	sw	a5,-28(s0)
80000ba4:	fe442703          	lw	a4,-28(s0)
80000ba8:	00f00793          	li	a5,15
80000bac:	f4e7f8e3          	bgeu	a5,a4,80000afc <main+0xc4>
80000bb0:	fec42783          	lw	a5,-20(s0)
80000bb4:	01078793          	addi	a5,a5,16
80000bb8:	fef42623          	sw	a5,-20(s0)
80000bbc:	ea1ff06f          	j	80000a5c <main+0x24>
80000bc0:	00078513          	mv	a0,a5
80000bc4:	06c12083          	lw	ra,108(sp)
80000bc8:	06812403          	lw	s0,104(sp)
80000bcc:	07010113          	addi	sp,sp,112
80000bd0:	00008067          	ret

Disassembly of section .data:

80000bd4 <__data_start>:
80000bd4:	6572                	.insn	2, 0x6572
80000bd6:	62207663          	bgeu	zero,sp,80001202 <__intr_stack_top+0x1ea>
80000bda:	6e69                	.insn	2, 0x6e69
80000bdc:	6620                	.insn	2, 0x6620
80000bde:	6c69                	.insn	2, 0x6c69
80000be0:	2e65                	.insn	2, 0x2e65
80000be2:	2e2e                	.insn	2, 0x2e2e
80000be4:	000a                	.insn	2, 0x000a
80000be6:	0000                	.insn	2, 0x0000
80000be8:	6572                	.insn	2, 0x6572
80000bea:	62207663          	bgeu	zero,sp,80001216 <__intr_stack_top+0x1fe>
80000bee:	6e69                	.insn	2, 0x6e69
80000bf0:	6620                	.insn	2, 0x6620
80000bf2:	6c69                	.insn	2, 0x6c69
80000bf4:	2065                	.insn	2, 0x2065
80000bf6:	6966                	.insn	2, 0x6966
80000bf8:	696e                	.insn	2, 0x696e
80000bfa:	64656873          	csrrsi	a6,hviprio1,10
80000bfe:	0a2e                	.insn	2, 0x0a2e
80000c00:	0000                	.insn	2, 0x0000
80000c02:	0000                	.insn	2, 0x0000
80000c04:	6461                	.insn	2, 0x6461
80000c06:	7264                	.insn	2, 0x7264
80000c08:	253a                	.insn	2, 0x253a
80000c0a:	2c78                	.insn	2, 0x2c78
80000c0c:	7620                	.insn	2, 0x7620
80000c0e:	6c61                	.insn	2, 0x6c61
80000c10:	253a                	.insn	2, 0x253a
80000c12:	0a78                	.insn	2, 0x0a78
80000c14:	0000                	.insn	2, 0x0000
	...

Disassembly of section .riscv.attributes:

00000000 <.riscv.attributes>:
   0:	3641                	.insn	2, 0x3641
   2:	0000                	.insn	2, 0x0000
   4:	7200                	.insn	2, 0x7200
   6:	7369                	.insn	2, 0x7369
   8:	01007663          	bgeu	zero,a6,14 <_start-0x7fffffec>
   c:	002c                	.insn	2, 0x002c
   e:	0000                	.insn	2, 0x0000
  10:	1004                	.insn	2, 0x1004
  12:	7205                	.insn	2, 0x7205
  14:	3376                	.insn	2, 0x3376
  16:	6932                	.insn	2, 0x6932
  18:	7032                	.insn	2, 0x7032
  1a:	5f31                	.insn	2, 0x5f31
  1c:	326d                	.insn	2, 0x326d
  1e:	3070                	.insn	2, 0x3070
  20:	7a5f 6369 7273      	.insn	6, 0x727363697a5f
  26:	7032                	.insn	2, 0x7032
  28:	5f30                	.insn	2, 0x5f30
  2a:	6d7a                	.insn	2, 0x6d7a
  2c:	756d                	.insn	2, 0x756d
  2e:	316c                	.insn	2, 0x316c
  30:	3070                	.insn	2, 0x3070
  32:	0800                	.insn	2, 0x0800
  34:	0a01                	.insn	2, 0x0a01
  36:	0b                	.byte	0x0b

Disassembly of section .comment:

00000000 <.comment>:
   0:	3a434347          	.insn	4, 0x3a434347
   4:	2820                	.insn	2, 0x2820
   6:	31313567          	.insn	4, 0x31313567
   a:	6335                	.insn	2, 0x6335
   c:	34346537          	lui	a0,0x34346
  10:	31202937          	lui	s2,0x31202
  14:	2e35                	.insn	2, 0x2e35
  16:	2e32                	.insn	2, 0x2e32
  18:	0030                	.insn	2, 0x0030
